; ModuleID = 'test_json.cpp'
source_filename = "test_json.cpp"
target datalayout = "e-m:o-p270:32:32-p271:32:32-p272:64:64-i64:64-f80:128-n8:16:32:64-S128"
target triple = "x86_64-apple-macosx13.0.0"

; Function Attrs: mustprogress noinline norecurse nounwind optnone ssp uwtable
define i32 @main() #0 !dbg !1271 {
entry:
  %retval = alloca i32, align 4
  store i32 0, i32* %retval, align 4
  ret i32 0, !dbg !1273
}

attributes #0 = { mustprogress noinline norecurse nounwind optnone ssp uwtable "darwin-stkchk-strong-link" "frame-pointer"="all" "min-legal-vector-width"="0" "no-trapping-math"="true" "probe-stack"="___chkstk_darwin" "stack-protector-buffer-size"="8" "target-cpu"="penryn" "target-features"="+cx16,+cx8,+fxsr,+mmx,+sahf,+sse,+sse2,+sse3,+sse4.1,+ssse3,+x87" "tune-cpu"="generic" }

!llvm.module.flags = !{!0, !1, !2, !3, !4, !5, !6}
!llvm.dbg.cu = !{!7}
!llvm.ident = !{!1270}

!0 = !{i32 2, !"SDK Version", [2 x i32] [i32 13, i32 3]}
!1 = !{i32 7, !"Dwarf Version", i32 4}
!2 = !{i32 2, !"Debug Info Version", i32 3}
!3 = !{i32 1, !"wchar_size", i32 4}
!4 = !{i32 7, !"PIC Level", i32 2}
!5 = !{i32 7, !"uwtable", i32 2}
!6 = !{i32 7, !"frame-pointer", i32 2}
!7 = distinct !DICompileUnit(language: DW_LANG_C_plus_plus_11, file: !8, producer: "Apple clang version 14.0.3 (clang-1403.0.22.14.1)", isOptimized: false, runtimeVersion: 0, emissionKind: FullDebug, imports: !9, splitDebugInlining: false, nameTableKind: None, sysroot: "/Library/Developer/CommandLineTools/SDKs/MacOSX.sdk", sdk: "MacOSX.sdk")
!8 = !DIFile(filename: "test_json.cpp", directory: "/Users/yongil/Dev/llvm/llvm-ir-test")
!9 = !{!10, !28, !35, !37, !39, !41, !43, !45, !47, !49, !51, !53, !55, !57, !59, !61, !66, !70, !73, !76, !80, !84, !88, !92, !95, !97, !99, !101, !103, !105, !107, !109, !111, !113, !115, !117, !119, !121, !123, !125, !130, !134, !137, !140, !145, !148, !150, !154, !156, !163, !169, !175, !182, !186, !190, !194, !200, !205, !209, !213, !217, !221, !225, !229, !233, !239, !243, !247, !251, !255, !260, !264, !266, !270, !272, !281, !285, !290, !294, !298, !302, !306, !308, !312, !318, !322, !326, !332, !334, !339, !341, !345, !349, !351, !353, !357, !361, !365, !367, !371, !376, !380, !384, !386, !388, !390, !392, !394, !396, !400, !404, !411, !413, !416, !418, !419, !423, !425, !427, !431, !433, !435, !437, !439, !441, !443, !445, !450, !454, !456, !458, !463, !468, !470, !472, !474, !476, !478, !480, !482, !484, !486, !488, !490, !492, !494, !496, !498, !500, !504, !506, !508, !510, !514, !516, !520, !522, !524, !526, !528, !532, !534, !536, !540, !542, !544, !548, !550, !554, !556, !558, !562, !564, !566, !568, !570, !572, !574, !578, !580, !582, !584, !586, !588, !590, !592, !596, !600, !602, !604, !606, !608, !610, !612, !614, !616, !618, !620, !622, !624, !626, !628, !630, !632, !634, !636, !638, !642, !644, !646, !648, !652, !654, !658, !660, !662, !664, !666, !670, !672, !676, !678, !680, !682, !684, !688, !690, !692, !696, !698, !700, !702, !707, !708, !712, !727, !731, !735, !740, !745, !751, !757, !761, !763, !767, !822, !823, !824, !830, !832, !836, !840, !844, !846, !850, !854, !858, !869, !871, !875, !879, !883, !885, !889, !893, !897, !899, !901, !903, !907, !911, !916, !920, !926, !930, !934, !936, !938, !940, !944, !948, !952, !954, !956, !960, !964, !966, !968, !972, !976, !978, !980, !982, !984, !989, !994, !999, !1004, !1006, !1009, !1011, !1013, !1015, !1017, !1019, !1021, !1023, !1025, !1027, !1031, !1035, !1039, !1041, !1045, !1049, !1051, !1052, !1053, !1054, !1055, !1060, !1062, !1066, !1070, !1074, !1078, !1080, !1084, !1088, !1092, !1096, !1100, !1104, !1106, !1108, !1112, !1117, !1121, !1125, !1129, !1133, !1137, !1141, !1145, !1149, !1151, !1153, !1157, !1159, !1163, !1167, !1172, !1174, !1176, !1178, !1182, !1186, !1190, !1192, !1196, !1198, !1200, !1202, !1204, !1208, !1212, !1214, !1220, !1225, !1229, !1233, !1238, !1243, !1247, !1251, !1255, !1259, !1261, !1263}
!10 = !DIImportedEntity(tag: DW_TAG_imported_declaration, scope: !11, entity: !13, file: !27, line: 44)
!11 = !DINamespace(name: "__1", scope: !12, exportSymbols: true)
!12 = !DINamespace(name: "std", scope: null)
!13 = !DIDerivedType(tag: DW_TAG_typedef, name: "mbstate_t", file: !14, line: 32, baseType: !15)
!14 = !DIFile(filename: "/Library/Developer/CommandLineTools/SDKs/MacOSX.sdk/usr/include/sys/_types/_mbstate_t.h", directory: "")
!15 = !DIDerivedType(tag: DW_TAG_typedef, name: "__darwin_mbstate_t", file: !16, line: 83, baseType: !17)
!16 = !DIFile(filename: "/Library/Developer/CommandLineTools/SDKs/MacOSX.sdk/usr/include/i386/_types.h", directory: "")
!17 = !DIDerivedType(tag: DW_TAG_typedef, name: "__mbstate_t", file: !16, line: 81, baseType: !18)
!18 = distinct !DICompositeType(tag: DW_TAG_union_type, file: !16, line: 78, size: 1024, flags: DIFlagTypePassByValue, elements: !19, identifier: "_ZTS11__mbstate_t")
!19 = !{!20, !25}
!20 = !DIDerivedType(tag: DW_TAG_member, name: "__mbstate8", scope: !18, file: !16, line: 79, baseType: !21, size: 1024)
!21 = !DICompositeType(tag: DW_TAG_array_type, baseType: !22, size: 1024, elements: !23)
!22 = !DIBasicType(name: "char", size: 8, encoding: DW_ATE_signed_char)
!23 = !{!24}
!24 = !DISubrange(count: 128)
!25 = !DIDerivedType(tag: DW_TAG_member, name: "_mbstateL", scope: !18, file: !16, line: 80, baseType: !26, size: 64)
!26 = !DIBasicType(name: "long long", size: 64, encoding: DW_ATE_signed)
!27 = !DIFile(filename: "/Library/Developer/CommandLineTools/SDKs/MacOSX.sdk/usr/include/c++/v1/__mbstate_t.h", directory: "")
!28 = !DIImportedEntity(tag: DW_TAG_imported_declaration, scope: !11, entity: !29, file: !34, line: 104)
!29 = !DISubprogram(name: "isalnum", linkageName: "_Z7isalnumi", scope: !30, file: !30, line: 212, type: !31, flags: DIFlagPrototyped, spFlags: 0)
!30 = !DIFile(filename: "/Library/Developer/CommandLineTools/SDKs/MacOSX.sdk/usr/include/_ctype.h", directory: "")
!31 = !DISubroutineType(types: !32)
!32 = !{!33, !33}
!33 = !DIBasicType(name: "int", size: 32, encoding: DW_ATE_signed)
!34 = !DIFile(filename: "/Library/Developer/CommandLineTools/SDKs/MacOSX.sdk/usr/include/c++/v1/cctype", directory: "")
!35 = !DIImportedEntity(tag: DW_TAG_imported_declaration, scope: !11, entity: !36, file: !34, line: 105)
!36 = !DISubprogram(name: "isalpha", linkageName: "_Z7isalphai", scope: !30, file: !30, line: 218, type: !31, flags: DIFlagPrototyped, spFlags: 0)
!37 = !DIImportedEntity(tag: DW_TAG_imported_declaration, scope: !11, entity: !38, file: !34, line: 106)
!38 = !DISubprogram(name: "isblank", linkageName: "_Z7isblanki", scope: !30, file: !30, line: 224, type: !31, flags: DIFlagPrototyped, spFlags: 0)
!39 = !DIImportedEntity(tag: DW_TAG_imported_declaration, scope: !11, entity: !40, file: !34, line: 107)
!40 = !DISubprogram(name: "iscntrl", linkageName: "_Z7iscntrli", scope: !30, file: !30, line: 230, type: !31, flags: DIFlagPrototyped, spFlags: 0)
!41 = !DIImportedEntity(tag: DW_TAG_imported_declaration, scope: !11, entity: !42, file: !34, line: 108)
!42 = !DISubprogram(name: "isdigit", linkageName: "_Z7isdigiti", scope: !30, file: !30, line: 237, type: !31, flags: DIFlagPrototyped, spFlags: 0)
!43 = !DIImportedEntity(tag: DW_TAG_imported_declaration, scope: !11, entity: !44, file: !34, line: 109)
!44 = !DISubprogram(name: "isgraph", linkageName: "_Z7isgraphi", scope: !30, file: !30, line: 243, type: !31, flags: DIFlagPrototyped, spFlags: 0)
!45 = !DIImportedEntity(tag: DW_TAG_imported_declaration, scope: !11, entity: !46, file: !34, line: 110)
!46 = !DISubprogram(name: "islower", linkageName: "_Z7isloweri", scope: !30, file: !30, line: 249, type: !31, flags: DIFlagPrototyped, spFlags: 0)
!47 = !DIImportedEntity(tag: DW_TAG_imported_declaration, scope: !11, entity: !48, file: !34, line: 111)
!48 = !DISubprogram(name: "isprint", linkageName: "_Z7isprinti", scope: !30, file: !30, line: 255, type: !31, flags: DIFlagPrototyped, spFlags: 0)
!49 = !DIImportedEntity(tag: DW_TAG_imported_declaration, scope: !11, entity: !50, file: !34, line: 112)
!50 = !DISubprogram(name: "ispunct", linkageName: "_Z7ispuncti", scope: !30, file: !30, line: 261, type: !31, flags: DIFlagPrototyped, spFlags: 0)
!51 = !DIImportedEntity(tag: DW_TAG_imported_declaration, scope: !11, entity: !52, file: !34, line: 113)
!52 = !DISubprogram(name: "isspace", linkageName: "_Z7isspacei", scope: !30, file: !30, line: 267, type: !31, flags: DIFlagPrototyped, spFlags: 0)
!53 = !DIImportedEntity(tag: DW_TAG_imported_declaration, scope: !11, entity: !54, file: !34, line: 114)
!54 = !DISubprogram(name: "isupper", linkageName: "_Z7isupperi", scope: !30, file: !30, line: 273, type: !31, flags: DIFlagPrototyped, spFlags: 0)
!55 = !DIImportedEntity(tag: DW_TAG_imported_declaration, scope: !11, entity: !56, file: !34, line: 115)
!56 = !DISubprogram(name: "isxdigit", linkageName: "_Z8isxdigiti", scope: !30, file: !30, line: 280, type: !31, flags: DIFlagPrototyped, spFlags: 0)
!57 = !DIImportedEntity(tag: DW_TAG_imported_declaration, scope: !11, entity: !58, file: !34, line: 116)
!58 = !DISubprogram(name: "tolower", linkageName: "_Z7toloweri", scope: !30, file: !30, line: 292, type: !31, flags: DIFlagPrototyped, spFlags: 0)
!59 = !DIImportedEntity(tag: DW_TAG_imported_declaration, scope: !11, entity: !60, file: !34, line: 117)
!60 = !DISubprogram(name: "toupper", linkageName: "_Z7toupperi", scope: !30, file: !30, line: 298, type: !31, flags: DIFlagPrototyped, spFlags: 0)
!61 = !DIImportedEntity(tag: DW_TAG_imported_declaration, scope: !11, entity: !62, file: !65, line: 153)
!62 = !DIDerivedType(tag: DW_TAG_typedef, name: "int8_t", file: !63, line: 30, baseType: !64)
!63 = !DIFile(filename: "/Library/Developer/CommandLineTools/SDKs/MacOSX.sdk/usr/include/sys/_types/_int8_t.h", directory: "")
!64 = !DIBasicType(name: "signed char", size: 8, encoding: DW_ATE_signed_char)
!65 = !DIFile(filename: "/Library/Developer/CommandLineTools/SDKs/MacOSX.sdk/usr/include/c++/v1/cstdint", directory: "")
!66 = !DIImportedEntity(tag: DW_TAG_imported_declaration, scope: !11, entity: !67, file: !65, line: 154)
!67 = !DIDerivedType(tag: DW_TAG_typedef, name: "int16_t", file: !68, line: 30, baseType: !69)
!68 = !DIFile(filename: "/Library/Developer/CommandLineTools/SDKs/MacOSX.sdk/usr/include/sys/_types/_int16_t.h", directory: "")
!69 = !DIBasicType(name: "short", size: 16, encoding: DW_ATE_signed)
!70 = !DIImportedEntity(tag: DW_TAG_imported_declaration, scope: !11, entity: !71, file: !65, line: 155)
!71 = !DIDerivedType(tag: DW_TAG_typedef, name: "int32_t", file: !72, line: 30, baseType: !33)
!72 = !DIFile(filename: "/Library/Developer/CommandLineTools/SDKs/MacOSX.sdk/usr/include/sys/_types/_int32_t.h", directory: "")
!73 = !DIImportedEntity(tag: DW_TAG_imported_declaration, scope: !11, entity: !74, file: !65, line: 156)
!74 = !DIDerivedType(tag: DW_TAG_typedef, name: "int64_t", file: !75, line: 30, baseType: !26)
!75 = !DIFile(filename: "/Library/Developer/CommandLineTools/SDKs/MacOSX.sdk/usr/include/sys/_types/_int64_t.h", directory: "")
!76 = !DIImportedEntity(tag: DW_TAG_imported_declaration, scope: !11, entity: !77, file: !65, line: 158)
!77 = !DIDerivedType(tag: DW_TAG_typedef, name: "uint8_t", file: !78, line: 31, baseType: !79)
!78 = !DIFile(filename: "/Library/Developer/CommandLineTools/SDKs/MacOSX.sdk/usr/include/_types/_uint8_t.h", directory: "")
!79 = !DIBasicType(name: "unsigned char", size: 8, encoding: DW_ATE_unsigned_char)
!80 = !DIImportedEntity(tag: DW_TAG_imported_declaration, scope: !11, entity: !81, file: !65, line: 159)
!81 = !DIDerivedType(tag: DW_TAG_typedef, name: "uint16_t", file: !82, line: 31, baseType: !83)
!82 = !DIFile(filename: "/Library/Developer/CommandLineTools/SDKs/MacOSX.sdk/usr/include/_types/_uint16_t.h", directory: "")
!83 = !DIBasicType(name: "unsigned short", size: 16, encoding: DW_ATE_unsigned)
!84 = !DIImportedEntity(tag: DW_TAG_imported_declaration, scope: !11, entity: !85, file: !65, line: 160)
!85 = !DIDerivedType(tag: DW_TAG_typedef, name: "uint32_t", file: !86, line: 31, baseType: !87)
!86 = !DIFile(filename: "/Library/Developer/CommandLineTools/SDKs/MacOSX.sdk/usr/include/_types/_uint32_t.h", directory: "")
!87 = !DIBasicType(name: "unsigned int", size: 32, encoding: DW_ATE_unsigned)
!88 = !DIImportedEntity(tag: DW_TAG_imported_declaration, scope: !11, entity: !89, file: !65, line: 161)
!89 = !DIDerivedType(tag: DW_TAG_typedef, name: "uint64_t", file: !90, line: 31, baseType: !91)
!90 = !DIFile(filename: "/Library/Developer/CommandLineTools/SDKs/MacOSX.sdk/usr/include/_types/_uint64_t.h", directory: "")
!91 = !DIBasicType(name: "unsigned long long", size: 64, encoding: DW_ATE_unsigned)
!92 = !DIImportedEntity(tag: DW_TAG_imported_declaration, scope: !11, entity: !93, file: !65, line: 163)
!93 = !DIDerivedType(tag: DW_TAG_typedef, name: "int_least8_t", file: !94, line: 29, baseType: !62)
!94 = !DIFile(filename: "/Library/Developer/CommandLineTools/SDKs/MacOSX.sdk/usr/include/stdint.h", directory: "")
!95 = !DIImportedEntity(tag: DW_TAG_imported_declaration, scope: !11, entity: !96, file: !65, line: 164)
!96 = !DIDerivedType(tag: DW_TAG_typedef, name: "int_least16_t", file: !94, line: 30, baseType: !67)
!97 = !DIImportedEntity(tag: DW_TAG_imported_declaration, scope: !11, entity: !98, file: !65, line: 165)
!98 = !DIDerivedType(tag: DW_TAG_typedef, name: "int_least32_t", file: !94, line: 31, baseType: !71)
!99 = !DIImportedEntity(tag: DW_TAG_imported_declaration, scope: !11, entity: !100, file: !65, line: 166)
!100 = !DIDerivedType(tag: DW_TAG_typedef, name: "int_least64_t", file: !94, line: 32, baseType: !74)
!101 = !DIImportedEntity(tag: DW_TAG_imported_declaration, scope: !11, entity: !102, file: !65, line: 168)
!102 = !DIDerivedType(tag: DW_TAG_typedef, name: "uint_least8_t", file: !94, line: 33, baseType: !77)
!103 = !DIImportedEntity(tag: DW_TAG_imported_declaration, scope: !11, entity: !104, file: !65, line: 169)
!104 = !DIDerivedType(tag: DW_TAG_typedef, name: "uint_least16_t", file: !94, line: 34, baseType: !81)
!105 = !DIImportedEntity(tag: DW_TAG_imported_declaration, scope: !11, entity: !106, file: !65, line: 170)
!106 = !DIDerivedType(tag: DW_TAG_typedef, name: "uint_least32_t", file: !94, line: 35, baseType: !85)
!107 = !DIImportedEntity(tag: DW_TAG_imported_declaration, scope: !11, entity: !108, file: !65, line: 171)
!108 = !DIDerivedType(tag: DW_TAG_typedef, name: "uint_least64_t", file: !94, line: 36, baseType: !89)
!109 = !DIImportedEntity(tag: DW_TAG_imported_declaration, scope: !11, entity: !110, file: !65, line: 173)
!110 = !DIDerivedType(tag: DW_TAG_typedef, name: "int_fast8_t", file: !94, line: 40, baseType: !62)
!111 = !DIImportedEntity(tag: DW_TAG_imported_declaration, scope: !11, entity: !112, file: !65, line: 174)
!112 = !DIDerivedType(tag: DW_TAG_typedef, name: "int_fast16_t", file: !94, line: 41, baseType: !67)
!113 = !DIImportedEntity(tag: DW_TAG_imported_declaration, scope: !11, entity: !114, file: !65, line: 175)
!114 = !DIDerivedType(tag: DW_TAG_typedef, name: "int_fast32_t", file: !94, line: 42, baseType: !71)
!115 = !DIImportedEntity(tag: DW_TAG_imported_declaration, scope: !11, entity: !116, file: !65, line: 176)
!116 = !DIDerivedType(tag: DW_TAG_typedef, name: "int_fast64_t", file: !94, line: 43, baseType: !74)
!117 = !DIImportedEntity(tag: DW_TAG_imported_declaration, scope: !11, entity: !118, file: !65, line: 178)
!118 = !DIDerivedType(tag: DW_TAG_typedef, name: "uint_fast8_t", file: !94, line: 44, baseType: !77)
!119 = !DIImportedEntity(tag: DW_TAG_imported_declaration, scope: !11, entity: !120, file: !65, line: 179)
!120 = !DIDerivedType(tag: DW_TAG_typedef, name: "uint_fast16_t", file: !94, line: 45, baseType: !81)
!121 = !DIImportedEntity(tag: DW_TAG_imported_declaration, scope: !11, entity: !122, file: !65, line: 180)
!122 = !DIDerivedType(tag: DW_TAG_typedef, name: "uint_fast32_t", file: !94, line: 46, baseType: !85)
!123 = !DIImportedEntity(tag: DW_TAG_imported_declaration, scope: !11, entity: !124, file: !65, line: 181)
!124 = !DIDerivedType(tag: DW_TAG_typedef, name: "uint_fast64_t", file: !94, line: 47, baseType: !89)
!125 = !DIImportedEntity(tag: DW_TAG_imported_declaration, scope: !11, entity: !126, file: !65, line: 183)
!126 = !DIDerivedType(tag: DW_TAG_typedef, name: "intptr_t", file: !127, line: 32, baseType: !128)
!127 = !DIFile(filename: "/Library/Developer/CommandLineTools/SDKs/MacOSX.sdk/usr/include/sys/_types/_intptr_t.h", directory: "")
!128 = !DIDerivedType(tag: DW_TAG_typedef, name: "__darwin_intptr_t", file: !16, line: 51, baseType: !129)
!129 = !DIBasicType(name: "long", size: 64, encoding: DW_ATE_signed)
!130 = !DIImportedEntity(tag: DW_TAG_imported_declaration, scope: !11, entity: !131, file: !65, line: 184)
!131 = !DIDerivedType(tag: DW_TAG_typedef, name: "uintptr_t", file: !132, line: 34, baseType: !133)
!132 = !DIFile(filename: "/Library/Developer/CommandLineTools/SDKs/MacOSX.sdk/usr/include/sys/_types/_uintptr_t.h", directory: "")
!133 = !DIBasicType(name: "unsigned long", size: 64, encoding: DW_ATE_unsigned)
!134 = !DIImportedEntity(tag: DW_TAG_imported_declaration, scope: !11, entity: !135, file: !65, line: 186)
!135 = !DIDerivedType(tag: DW_TAG_typedef, name: "intmax_t", file: !136, line: 32, baseType: !129)
!136 = !DIFile(filename: "/Library/Developer/CommandLineTools/SDKs/MacOSX.sdk/usr/include/_types/_intmax_t.h", directory: "")
!137 = !DIImportedEntity(tag: DW_TAG_imported_declaration, scope: !11, entity: !138, file: !65, line: 187)
!138 = !DIDerivedType(tag: DW_TAG_typedef, name: "uintmax_t", file: !139, line: 32, baseType: !133)
!139 = !DIFile(filename: "/Library/Developer/CommandLineTools/SDKs/MacOSX.sdk/usr/include/_types/_uintmax_t.h", directory: "")
!140 = !DIImportedEntity(tag: DW_TAG_imported_declaration, scope: !11, entity: !141, file: !144, line: 50)
!141 = !DIDerivedType(tag: DW_TAG_typedef, name: "nullptr_t", file: !142, line: 48, baseType: !143)
!142 = !DIFile(filename: "/Library/Developer/CommandLineTools/SDKs/MacOSX.sdk/usr/include/c++/v1/stddef.h", directory: "")
!143 = !DIBasicType(tag: DW_TAG_unspecified_type, name: "decltype(nullptr)")
!144 = !DIFile(filename: "/Library/Developer/CommandLineTools/SDKs/MacOSX.sdk/usr/include/c++/v1/cstddef", directory: "")
!145 = !DIImportedEntity(tag: DW_TAG_imported_declaration, scope: !11, entity: !146, file: !144, line: 51)
!146 = !DIDerivedType(tag: DW_TAG_typedef, name: "ptrdiff_t", file: !147, line: 35, baseType: !129)
!147 = !DIFile(filename: "/Library/Developer/CommandLineTools/usr/lib/clang/14.0.3/include/stddef.h", directory: "")
!148 = !DIImportedEntity(tag: DW_TAG_imported_declaration, scope: !11, entity: !149, file: !144, line: 52)
!149 = !DIDerivedType(tag: DW_TAG_typedef, name: "size_t", file: !147, line: 46, baseType: !133)
!150 = !DIImportedEntity(tag: DW_TAG_imported_declaration, scope: !11, entity: !151, file: !144, line: 55)
!151 = !DIDerivedType(tag: DW_TAG_typedef, name: "max_align_t", file: !152, line: 16, baseType: !153)
!152 = !DIFile(filename: "/Library/Developer/CommandLineTools/usr/lib/clang/14.0.3/include/__stddef_max_align_t.h", directory: "")
!153 = !DIBasicType(name: "long double", size: 128, encoding: DW_ATE_float)
!154 = !DIImportedEntity(tag: DW_TAG_imported_declaration, scope: !11, entity: !149, file: !155, line: 94)
!155 = !DIFile(filename: "/Library/Developer/CommandLineTools/SDKs/MacOSX.sdk/usr/include/c++/v1/cstdlib", directory: "")
!156 = !DIImportedEntity(tag: DW_TAG_imported_declaration, scope: !11, entity: !157, file: !155, line: 95)
!157 = !DIDerivedType(tag: DW_TAG_typedef, name: "div_t", file: !158, line: 86, baseType: !159)
!158 = !DIFile(filename: "/Library/Developer/CommandLineTools/SDKs/MacOSX.sdk/usr/include/stdlib.h", directory: "")
!159 = distinct !DICompositeType(tag: DW_TAG_structure_type, file: !158, line: 83, size: 64, flags: DIFlagTypePassByValue, elements: !160, identifier: "_ZTS5div_t")
!160 = !{!161, !162}
!161 = !DIDerivedType(tag: DW_TAG_member, name: "quot", scope: !159, file: !158, line: 84, baseType: !33, size: 32)
!162 = !DIDerivedType(tag: DW_TAG_member, name: "rem", scope: !159, file: !158, line: 85, baseType: !33, size: 32, offset: 32)
!163 = !DIImportedEntity(tag: DW_TAG_imported_declaration, scope: !11, entity: !164, file: !155, line: 96)
!164 = !DIDerivedType(tag: DW_TAG_typedef, name: "ldiv_t", file: !158, line: 91, baseType: !165)
!165 = distinct !DICompositeType(tag: DW_TAG_structure_type, file: !158, line: 88, size: 128, flags: DIFlagTypePassByValue, elements: !166, identifier: "_ZTS6ldiv_t")
!166 = !{!167, !168}
!167 = !DIDerivedType(tag: DW_TAG_member, name: "quot", scope: !165, file: !158, line: 89, baseType: !129, size: 64)
!168 = !DIDerivedType(tag: DW_TAG_member, name: "rem", scope: !165, file: !158, line: 90, baseType: !129, size: 64, offset: 64)
!169 = !DIImportedEntity(tag: DW_TAG_imported_declaration, scope: !11, entity: !170, file: !155, line: 97)
!170 = !DIDerivedType(tag: DW_TAG_typedef, name: "lldiv_t", file: !158, line: 97, baseType: !171)
!171 = distinct !DICompositeType(tag: DW_TAG_structure_type, file: !158, line: 94, size: 128, flags: DIFlagTypePassByValue, elements: !172, identifier: "_ZTS7lldiv_t")
!172 = !{!173, !174}
!173 = !DIDerivedType(tag: DW_TAG_member, name: "quot", scope: !171, file: !158, line: 95, baseType: !26, size: 64)
!174 = !DIDerivedType(tag: DW_TAG_member, name: "rem", scope: !171, file: !158, line: 96, baseType: !26, size: 64, offset: 64)
!175 = !DIImportedEntity(tag: DW_TAG_imported_declaration, scope: !11, entity: !176, file: !155, line: 98)
!176 = !DISubprogram(name: "atof", scope: !158, file: !158, line: 134, type: !177, flags: DIFlagPrototyped, spFlags: 0)
!177 = !DISubroutineType(types: !178)
!178 = !{!179, !180}
!179 = !DIBasicType(name: "double", size: 64, encoding: DW_ATE_float)
!180 = !DIDerivedType(tag: DW_TAG_pointer_type, baseType: !181, size: 64)
!181 = !DIDerivedType(tag: DW_TAG_const_type, baseType: !22)
!182 = !DIImportedEntity(tag: DW_TAG_imported_declaration, scope: !11, entity: !183, file: !155, line: 99)
!183 = !DISubprogram(name: "atoi", scope: !158, file: !158, line: 135, type: !184, flags: DIFlagPrototyped, spFlags: 0)
!184 = !DISubroutineType(types: !185)
!185 = !{!33, !180}
!186 = !DIImportedEntity(tag: DW_TAG_imported_declaration, scope: !11, entity: !187, file: !155, line: 100)
!187 = !DISubprogram(name: "atol", scope: !158, file: !158, line: 136, type: !188, flags: DIFlagPrototyped, spFlags: 0)
!188 = !DISubroutineType(types: !189)
!189 = !{!129, !180}
!190 = !DIImportedEntity(tag: DW_TAG_imported_declaration, scope: !11, entity: !191, file: !155, line: 101)
!191 = !DISubprogram(name: "atoll", scope: !158, file: !158, line: 139, type: !192, flags: DIFlagPrototyped, spFlags: 0)
!192 = !DISubroutineType(types: !193)
!193 = !{!26, !180}
!194 = !DIImportedEntity(tag: DW_TAG_imported_declaration, scope: !11, entity: !195, file: !155, line: 102)
!195 = !DISubprogram(name: "strtod", linkageName: "\01_strtod", scope: !158, file: !158, line: 165, type: !196, flags: DIFlagPrototyped, spFlags: 0)
!196 = !DISubroutineType(types: !197)
!197 = !{!179, !180, !198}
!198 = !DIDerivedType(tag: DW_TAG_pointer_type, baseType: !199, size: 64)
!199 = !DIDerivedType(tag: DW_TAG_pointer_type, baseType: !22, size: 64)
!200 = !DIImportedEntity(tag: DW_TAG_imported_declaration, scope: !11, entity: !201, file: !155, line: 103)
!201 = !DISubprogram(name: "strtof", linkageName: "\01_strtof", scope: !158, file: !158, line: 166, type: !202, flags: DIFlagPrototyped, spFlags: 0)
!202 = !DISubroutineType(types: !203)
!203 = !{!204, !180, !198}
!204 = !DIBasicType(name: "float", size: 32, encoding: DW_ATE_float)
!205 = !DIImportedEntity(tag: DW_TAG_imported_declaration, scope: !11, entity: !206, file: !155, line: 104)
!206 = !DISubprogram(name: "strtold", scope: !158, file: !158, line: 169, type: !207, flags: DIFlagPrototyped, spFlags: 0)
!207 = !DISubroutineType(types: !208)
!208 = !{!153, !180, !198}
!209 = !DIImportedEntity(tag: DW_TAG_imported_declaration, scope: !11, entity: !210, file: !155, line: 105)
!210 = !DISubprogram(name: "strtol", scope: !158, file: !158, line: 167, type: !211, flags: DIFlagPrototyped, spFlags: 0)
!211 = !DISubroutineType(types: !212)
!212 = !{!129, !180, !198, !33}
!213 = !DIImportedEntity(tag: DW_TAG_imported_declaration, scope: !11, entity: !214, file: !155, line: 106)
!214 = !DISubprogram(name: "strtoll", scope: !158, file: !158, line: 172, type: !215, flags: DIFlagPrototyped, spFlags: 0)
!215 = !DISubroutineType(types: !216)
!216 = !{!26, !180, !198, !33}
!217 = !DIImportedEntity(tag: DW_TAG_imported_declaration, scope: !11, entity: !218, file: !155, line: 107)
!218 = !DISubprogram(name: "strtoul", scope: !158, file: !158, line: 175, type: !219, flags: DIFlagPrototyped, spFlags: 0)
!219 = !DISubroutineType(types: !220)
!220 = !{!133, !180, !198, !33}
!221 = !DIImportedEntity(tag: DW_TAG_imported_declaration, scope: !11, entity: !222, file: !155, line: 108)
!222 = !DISubprogram(name: "strtoull", scope: !158, file: !158, line: 178, type: !223, flags: DIFlagPrototyped, spFlags: 0)
!223 = !DISubroutineType(types: !224)
!224 = !{!91, !180, !198, !33}
!225 = !DIImportedEntity(tag: DW_TAG_imported_declaration, scope: !11, entity: !226, file: !155, line: 109)
!226 = !DISubprogram(name: "rand", scope: !158, file: !158, line: 162, type: !227, flags: DIFlagPrototyped, spFlags: 0)
!227 = !DISubroutineType(types: !228)
!228 = !{!33}
!229 = !DIImportedEntity(tag: DW_TAG_imported_declaration, scope: !11, entity: !230, file: !155, line: 110)
!230 = !DISubprogram(name: "srand", scope: !158, file: !158, line: 164, type: !231, flags: DIFlagPrototyped, spFlags: 0)
!231 = !DISubroutineType(types: !232)
!232 = !{null, !87}
!233 = !DIImportedEntity(tag: DW_TAG_imported_declaration, scope: !11, entity: !234, file: !155, line: 111)
!234 = !DISubprogram(name: "calloc", scope: !235, file: !235, line: 41, type: !236, flags: DIFlagPrototyped, spFlags: 0)
!235 = !DIFile(filename: "/Library/Developer/CommandLineTools/SDKs/MacOSX.sdk/usr/include/malloc/_malloc.h", directory: "")
!236 = !DISubroutineType(types: !237)
!237 = !{!238, !149, !149}
!238 = !DIDerivedType(tag: DW_TAG_pointer_type, baseType: null, size: 64)
!239 = !DIImportedEntity(tag: DW_TAG_imported_declaration, scope: !11, entity: !240, file: !155, line: 112)
!240 = !DISubprogram(name: "free", scope: !235, file: !235, line: 42, type: !241, flags: DIFlagPrototyped, spFlags: 0)
!241 = !DISubroutineType(types: !242)
!242 = !{null, !238}
!243 = !DIImportedEntity(tag: DW_TAG_imported_declaration, scope: !11, entity: !244, file: !155, line: 113)
!244 = !DISubprogram(name: "malloc", scope: !235, file: !235, line: 40, type: !245, flags: DIFlagPrototyped, spFlags: 0)
!245 = !DISubroutineType(types: !246)
!246 = !{!238, !149}
!247 = !DIImportedEntity(tag: DW_TAG_imported_declaration, scope: !11, entity: !248, file: !155, line: 114)
!248 = !DISubprogram(name: "realloc", scope: !235, file: !235, line: 43, type: !249, flags: DIFlagPrototyped, spFlags: 0)
!249 = !DISubroutineType(types: !250)
!250 = !{!238, !238, !149}
!251 = !DIImportedEntity(tag: DW_TAG_imported_declaration, scope: !11, entity: !252, file: !155, line: 115)
!252 = !DISubprogram(name: "abort", scope: !158, file: !158, line: 131, type: !253, flags: DIFlagPrototyped, spFlags: 0)
!253 = !DISubroutineType(types: !254)
!254 = !{null}
!255 = !DIImportedEntity(tag: DW_TAG_imported_declaration, scope: !11, entity: !256, file: !155, line: 116)
!256 = !DISubprogram(name: "atexit", scope: !158, file: !158, line: 133, type: !257, flags: DIFlagPrototyped, spFlags: 0)
!257 = !DISubroutineType(types: !258)
!258 = !{!33, !259}
!259 = !DIDerivedType(tag: DW_TAG_pointer_type, baseType: !253, size: 64)
!260 = !DIImportedEntity(tag: DW_TAG_imported_declaration, scope: !11, entity: !261, file: !155, line: 117)
!261 = !DISubprogram(name: "exit", scope: !158, file: !158, line: 145, type: !262, flags: DIFlagPrototyped | DIFlagNoReturn, spFlags: 0)
!262 = !DISubroutineType(types: !263)
!263 = !{null, !33}
!264 = !DIImportedEntity(tag: DW_TAG_imported_declaration, scope: !11, entity: !265, file: !155, line: 118)
!265 = !DISubprogram(name: "_Exit", scope: !158, file: !158, line: 191, type: !262, flags: DIFlagPrototyped | DIFlagNoReturn, spFlags: 0)
!266 = !DIImportedEntity(tag: DW_TAG_imported_declaration, scope: !11, entity: !267, file: !155, line: 119)
!267 = !DISubprogram(name: "getenv", scope: !158, file: !158, line: 147, type: !268, flags: DIFlagPrototyped, spFlags: 0)
!268 = !DISubroutineType(types: !269)
!269 = !{!199, !180}
!270 = !DIImportedEntity(tag: DW_TAG_imported_declaration, scope: !11, entity: !271, file: !155, line: 120)
!271 = !DISubprogram(name: "system", linkageName: "\01_system", scope: !158, file: !158, line: 184, type: !184, flags: DIFlagPrototyped, spFlags: 0)
!272 = !DIImportedEntity(tag: DW_TAG_imported_declaration, scope: !11, entity: !273, file: !155, line: 121)
!273 = !DISubprogram(name: "bsearch", scope: !158, file: !158, line: 141, type: !274, flags: DIFlagPrototyped, spFlags: 0)
!274 = !DISubroutineType(types: !275)
!275 = !{!238, !276, !276, !149, !149, !278}
!276 = !DIDerivedType(tag: DW_TAG_pointer_type, baseType: !277, size: 64)
!277 = !DIDerivedType(tag: DW_TAG_const_type, baseType: null)
!278 = !DIDerivedType(tag: DW_TAG_pointer_type, baseType: !279, size: 64)
!279 = !DISubroutineType(types: !280)
!280 = !{!33, !276, !276}
!281 = !DIImportedEntity(tag: DW_TAG_imported_declaration, scope: !11, entity: !282, file: !155, line: 122)
!282 = !DISubprogram(name: "qsort", scope: !158, file: !158, line: 160, type: !283, flags: DIFlagPrototyped, spFlags: 0)
!283 = !DISubroutineType(types: !284)
!284 = !{null, !238, !149, !149, !278}
!285 = !DIImportedEntity(tag: DW_TAG_imported_declaration, scope: !11, entity: !286, file: !155, line: 123)
!286 = !DISubprogram(name: "abs", linkageName: "_Z3absB6v15006e", scope: !287, file: !287, line: 129, type: !288, flags: DIFlagPrototyped, spFlags: 0)
!287 = !DIFile(filename: "/Library/Developer/CommandLineTools/SDKs/MacOSX.sdk/usr/include/c++/v1/stdlib.h", directory: "")
!288 = !DISubroutineType(types: !289)
!289 = !{!153, !153}
!290 = !DIImportedEntity(tag: DW_TAG_imported_declaration, scope: !11, entity: !291, file: !155, line: 124)
!291 = !DISubprogram(name: "labs", scope: !158, file: !158, line: 148, type: !292, flags: DIFlagPrototyped, spFlags: 0)
!292 = !DISubroutineType(types: !293)
!293 = !{!129, !129}
!294 = !DIImportedEntity(tag: DW_TAG_imported_declaration, scope: !11, entity: !295, file: !155, line: 125)
!295 = !DISubprogram(name: "llabs", scope: !158, file: !158, line: 152, type: !296, flags: DIFlagPrototyped, spFlags: 0)
!296 = !DISubroutineType(types: !297)
!297 = !{!26, !26}
!298 = !DIImportedEntity(tag: DW_TAG_imported_declaration, scope: !11, entity: !299, file: !155, line: 126)
!299 = !DISubprogram(name: "div", linkageName: "_Z3divB6v15006xx", scope: !287, file: !287, line: 152, type: !300, flags: DIFlagPrototyped, spFlags: 0)
!300 = !DISubroutineType(types: !301)
!301 = !{!170, !26, !26}
!302 = !DIImportedEntity(tag: DW_TAG_imported_declaration, scope: !11, entity: !303, file: !155, line: 127)
!303 = !DISubprogram(name: "ldiv", scope: !158, file: !158, line: 149, type: !304, flags: DIFlagPrototyped, spFlags: 0)
!304 = !DISubroutineType(types: !305)
!305 = !{!164, !129, !129}
!306 = !DIImportedEntity(tag: DW_TAG_imported_declaration, scope: !11, entity: !307, file: !155, line: 128)
!307 = !DISubprogram(name: "lldiv", scope: !158, file: !158, line: 153, type: !300, flags: DIFlagPrototyped, spFlags: 0)
!308 = !DIImportedEntity(tag: DW_TAG_imported_declaration, scope: !11, entity: !309, file: !155, line: 129)
!309 = !DISubprogram(name: "mblen", scope: !158, file: !158, line: 156, type: !310, flags: DIFlagPrototyped, spFlags: 0)
!310 = !DISubroutineType(types: !311)
!311 = !{!33, !180, !149}
!312 = !DIImportedEntity(tag: DW_TAG_imported_declaration, scope: !11, entity: !313, file: !155, line: 130)
!313 = !DISubprogram(name: "mbtowc", scope: !158, file: !158, line: 158, type: !314, flags: DIFlagPrototyped, spFlags: 0)
!314 = !DISubroutineType(types: !315)
!315 = !{!33, !316, !180, !149}
!316 = !DIDerivedType(tag: DW_TAG_pointer_type, baseType: !317, size: 64)
!317 = !DIBasicType(name: "wchar_t", size: 32, encoding: DW_ATE_signed)
!318 = !DIImportedEntity(tag: DW_TAG_imported_declaration, scope: !11, entity: !319, file: !155, line: 131)
!319 = !DISubprogram(name: "wctomb", scope: !158, file: !158, line: 188, type: !320, flags: DIFlagPrototyped, spFlags: 0)
!320 = !DISubroutineType(types: !321)
!321 = !{!33, !199, !317}
!322 = !DIImportedEntity(tag: DW_TAG_imported_declaration, scope: !11, entity: !323, file: !155, line: 132)
!323 = !DISubprogram(name: "mbstowcs", scope: !158, file: !158, line: 157, type: !324, flags: DIFlagPrototyped, spFlags: 0)
!324 = !DISubroutineType(types: !325)
!325 = !{!149, !316, !180, !149}
!326 = !DIImportedEntity(tag: DW_TAG_imported_declaration, scope: !11, entity: !327, file: !155, line: 133)
!327 = !DISubprogram(name: "wcstombs", scope: !158, file: !158, line: 187, type: !328, flags: DIFlagPrototyped, spFlags: 0)
!328 = !DISubroutineType(types: !329)
!329 = !{!149, !199, !330, !149}
!330 = !DIDerivedType(tag: DW_TAG_pointer_type, baseType: !331, size: 64)
!331 = !DIDerivedType(tag: DW_TAG_const_type, baseType: !317)
!332 = !DIImportedEntity(tag: DW_TAG_imported_declaration, scope: !11, entity: !149, file: !333, line: 69)
!333 = !DIFile(filename: "/Library/Developer/CommandLineTools/SDKs/MacOSX.sdk/usr/include/c++/v1/cstring", directory: "")
!334 = !DIImportedEntity(tag: DW_TAG_imported_declaration, scope: !11, entity: !335, file: !333, line: 70)
!335 = !DISubprogram(name: "memcpy", scope: !336, file: !336, line: 72, type: !337, flags: DIFlagPrototyped, spFlags: 0)
!336 = !DIFile(filename: "/Library/Developer/CommandLineTools/SDKs/MacOSX.sdk/usr/include/string.h", directory: "")
!337 = !DISubroutineType(types: !338)
!338 = !{!238, !238, !276, !149}
!339 = !DIImportedEntity(tag: DW_TAG_imported_declaration, scope: !11, entity: !340, file: !333, line: 71)
!340 = !DISubprogram(name: "memmove", scope: !336, file: !336, line: 73, type: !337, flags: DIFlagPrototyped, spFlags: 0)
!341 = !DIImportedEntity(tag: DW_TAG_imported_declaration, scope: !11, entity: !342, file: !333, line: 72)
!342 = !DISubprogram(name: "strcpy", scope: !336, file: !336, line: 79, type: !343, flags: DIFlagPrototyped, spFlags: 0)
!343 = !DISubroutineType(types: !344)
!344 = !{!199, !199, !180}
!345 = !DIImportedEntity(tag: DW_TAG_imported_declaration, scope: !11, entity: !346, file: !333, line: 73)
!346 = !DISubprogram(name: "strncpy", scope: !336, file: !336, line: 85, type: !347, flags: DIFlagPrototyped, spFlags: 0)
!347 = !DISubroutineType(types: !348)
!348 = !{!199, !199, !180, !149}
!349 = !DIImportedEntity(tag: DW_TAG_imported_declaration, scope: !11, entity: !350, file: !333, line: 74)
!350 = !DISubprogram(name: "strcat", scope: !336, file: !336, line: 75, type: !343, flags: DIFlagPrototyped, spFlags: 0)
!351 = !DIImportedEntity(tag: DW_TAG_imported_declaration, scope: !11, entity: !352, file: !333, line: 75)
!352 = !DISubprogram(name: "strncat", scope: !336, file: !336, line: 83, type: !347, flags: DIFlagPrototyped, spFlags: 0)
!353 = !DIImportedEntity(tag: DW_TAG_imported_declaration, scope: !11, entity: !354, file: !333, line: 76)
!354 = !DISubprogram(name: "memcmp", scope: !336, file: !336, line: 71, type: !355, flags: DIFlagPrototyped, spFlags: 0)
!355 = !DISubroutineType(types: !356)
!356 = !{!33, !276, !276, !149}
!357 = !DIImportedEntity(tag: DW_TAG_imported_declaration, scope: !11, entity: !358, file: !333, line: 77)
!358 = !DISubprogram(name: "strcmp", scope: !336, file: !336, line: 77, type: !359, flags: DIFlagPrototyped, spFlags: 0)
!359 = !DISubroutineType(types: !360)
!360 = !{!33, !180, !180}
!361 = !DIImportedEntity(tag: DW_TAG_imported_declaration, scope: !11, entity: !362, file: !333, line: 78)
!362 = !DISubprogram(name: "strncmp", scope: !336, file: !336, line: 84, type: !363, flags: DIFlagPrototyped, spFlags: 0)
!363 = !DISubroutineType(types: !364)
!364 = !{!33, !180, !180, !149}
!365 = !DIImportedEntity(tag: DW_TAG_imported_declaration, scope: !11, entity: !366, file: !333, line: 79)
!366 = !DISubprogram(name: "strcoll", scope: !336, file: !336, line: 78, type: !359, flags: DIFlagPrototyped, spFlags: 0)
!367 = !DIImportedEntity(tag: DW_TAG_imported_declaration, scope: !11, entity: !368, file: !333, line: 80)
!368 = !DISubprogram(name: "strxfrm", scope: !336, file: !336, line: 91, type: !369, flags: DIFlagPrototyped, spFlags: 0)
!369 = !DISubroutineType(types: !370)
!370 = !{!149, !199, !180, !149}
!371 = !DIImportedEntity(tag: DW_TAG_imported_declaration, scope: !11, entity: !372, file: !333, line: 81)
!372 = !DISubprogram(name: "memchr", linkageName: "_Z6memchrB6v15006Ua9enable_ifIXLb1EEEPvim", scope: !373, file: !373, line: 98, type: !374, flags: DIFlagPrototyped, spFlags: 0)
!373 = !DIFile(filename: "/Library/Developer/CommandLineTools/SDKs/MacOSX.sdk/usr/include/c++/v1/string.h", directory: "")
!374 = !DISubroutineType(types: !375)
!375 = !{!238, !238, !33, !149}
!376 = !DIImportedEntity(tag: DW_TAG_imported_declaration, scope: !11, entity: !377, file: !333, line: 82)
!377 = !DISubprogram(name: "strchr", linkageName: "_Z6strchrB6v15006Ua9enable_ifIXLb1EEEPci", scope: !373, file: !373, line: 77, type: !378, flags: DIFlagPrototyped, spFlags: 0)
!378 = !DISubroutineType(types: !379)
!379 = !{!199, !199, !33}
!380 = !DIImportedEntity(tag: DW_TAG_imported_declaration, scope: !11, entity: !381, file: !333, line: 83)
!381 = !DISubprogram(name: "strcspn", scope: !336, file: !336, line: 80, type: !382, flags: DIFlagPrototyped, spFlags: 0)
!382 = !DISubroutineType(types: !383)
!383 = !{!149, !180, !180}
!384 = !DIImportedEntity(tag: DW_TAG_imported_declaration, scope: !11, entity: !385, file: !333, line: 84)
!385 = !DISubprogram(name: "strpbrk", linkageName: "_Z7strpbrkB6v15006Ua9enable_ifIXLb1EEEPcPKc", scope: !373, file: !373, line: 84, type: !343, flags: DIFlagPrototyped, spFlags: 0)
!386 = !DIImportedEntity(tag: DW_TAG_imported_declaration, scope: !11, entity: !387, file: !333, line: 85)
!387 = !DISubprogram(name: "strrchr", linkageName: "_Z7strrchrB6v15006Ua9enable_ifIXLb1EEEPci", scope: !373, file: !373, line: 91, type: !378, flags: DIFlagPrototyped, spFlags: 0)
!388 = !DIImportedEntity(tag: DW_TAG_imported_declaration, scope: !11, entity: !389, file: !333, line: 86)
!389 = !DISubprogram(name: "strspn", scope: !336, file: !336, line: 88, type: !382, flags: DIFlagPrototyped, spFlags: 0)
!390 = !DIImportedEntity(tag: DW_TAG_imported_declaration, scope: !11, entity: !391, file: !333, line: 87)
!391 = !DISubprogram(name: "strstr", linkageName: "_Z6strstrB6v15006Ua9enable_ifIXLb1EEEPcPKc", scope: !373, file: !373, line: 105, type: !343, flags: DIFlagPrototyped, spFlags: 0)
!392 = !DIImportedEntity(tag: DW_TAG_imported_declaration, scope: !11, entity: !393, file: !333, line: 88)
!393 = !DISubprogram(name: "strtok", scope: !336, file: !336, line: 90, type: !343, flags: DIFlagPrototyped, spFlags: 0)
!394 = !DIImportedEntity(tag: DW_TAG_imported_declaration, scope: !11, entity: !395, file: !333, line: 89)
!395 = !DISubprogram(name: "memset", scope: !336, file: !336, line: 74, type: !374, flags: DIFlagPrototyped, spFlags: 0)
!396 = !DIImportedEntity(tag: DW_TAG_imported_declaration, scope: !11, entity: !397, file: !333, line: 90)
!397 = !DISubprogram(name: "strerror", linkageName: "\01_strerror", scope: !336, file: !336, line: 81, type: !398, flags: DIFlagPrototyped, spFlags: 0)
!398 = !DISubroutineType(types: !399)
!399 = !{!199, !33}
!400 = !DIImportedEntity(tag: DW_TAG_imported_declaration, scope: !11, entity: !401, file: !333, line: 91)
!401 = !DISubprogram(name: "strlen", scope: !336, file: !336, line: 82, type: !402, flags: DIFlagPrototyped, spFlags: 0)
!402 = !DISubroutineType(types: !403)
!403 = !{!149, !180}
!404 = !DIImportedEntity(tag: DW_TAG_imported_declaration, scope: !11, entity: !405, file: !410, line: 325)
!405 = !DISubprogram(name: "isinf", linkageName: "_Z5isinfB6v15006e", scope: !406, file: !406, line: 515, type: !407, flags: DIFlagPrototyped, spFlags: 0)
!406 = !DIFile(filename: "/Library/Developer/CommandLineTools/SDKs/MacOSX.sdk/usr/include/c++/v1/math.h", directory: "")
!407 = !DISubroutineType(types: !408)
!408 = !{!409, !153}
!409 = !DIBasicType(name: "bool", size: 8, encoding: DW_ATE_boolean)
!410 = !DIFile(filename: "/Library/Developer/CommandLineTools/SDKs/MacOSX.sdk/usr/include/c++/v1/cmath", directory: "")
!411 = !DIImportedEntity(tag: DW_TAG_imported_declaration, scope: !11, entity: !412, file: !410, line: 326)
!412 = !DISubprogram(name: "isnan", linkageName: "_Z5isnanB6v15006e", scope: !406, file: !406, line: 563, type: !407, flags: DIFlagPrototyped, spFlags: 0)
!413 = !DIImportedEntity(tag: DW_TAG_imported_declaration, scope: !11, entity: !414, file: !410, line: 336)
!414 = !DIDerivedType(tag: DW_TAG_typedef, name: "float_t", file: !415, line: 44, baseType: !204)
!415 = !DIFile(filename: "/Library/Developer/CommandLineTools/SDKs/MacOSX.sdk/usr/include/math.h", directory: "")
!416 = !DIImportedEntity(tag: DW_TAG_imported_declaration, scope: !11, entity: !417, file: !410, line: 337)
!417 = !DIDerivedType(tag: DW_TAG_typedef, name: "double_t", file: !415, line: 45, baseType: !179)
!418 = !DIImportedEntity(tag: DW_TAG_imported_declaration, scope: !11, entity: !286, file: !410, line: 339)
!419 = !DIImportedEntity(tag: DW_TAG_imported_declaration, scope: !11, entity: !420, file: !410, line: 342)
!420 = !DISubprogram(name: "acosf", scope: !415, file: !415, line: 308, type: !421, flags: DIFlagPrototyped, spFlags: 0)
!421 = !DISubroutineType(types: !422)
!422 = !{!204, !204}
!423 = !DIImportedEntity(tag: DW_TAG_imported_declaration, scope: !11, entity: !424, file: !410, line: 344)
!424 = !DISubprogram(name: "asinf", scope: !415, file: !415, line: 312, type: !421, flags: DIFlagPrototyped, spFlags: 0)
!425 = !DIImportedEntity(tag: DW_TAG_imported_declaration, scope: !11, entity: !426, file: !410, line: 346)
!426 = !DISubprogram(name: "atanf", scope: !415, file: !415, line: 316, type: !421, flags: DIFlagPrototyped, spFlags: 0)
!427 = !DIImportedEntity(tag: DW_TAG_imported_declaration, scope: !11, entity: !428, file: !410, line: 348)
!428 = !DISubprogram(name: "atan2f", scope: !415, file: !415, line: 320, type: !429, flags: DIFlagPrototyped, spFlags: 0)
!429 = !DISubroutineType(types: !430)
!430 = !{!204, !204, !204}
!431 = !DIImportedEntity(tag: DW_TAG_imported_declaration, scope: !11, entity: !432, file: !410, line: 350)
!432 = !DISubprogram(name: "ceilf", scope: !415, file: !415, line: 455, type: !421, flags: DIFlagPrototyped, spFlags: 0)
!433 = !DIImportedEntity(tag: DW_TAG_imported_declaration, scope: !11, entity: !434, file: !410, line: 352)
!434 = !DISubprogram(name: "cosf", scope: !415, file: !415, line: 324, type: !421, flags: DIFlagPrototyped, spFlags: 0)
!435 = !DIImportedEntity(tag: DW_TAG_imported_declaration, scope: !11, entity: !436, file: !410, line: 354)
!436 = !DISubprogram(name: "coshf", scope: !415, file: !415, line: 348, type: !421, flags: DIFlagPrototyped, spFlags: 0)
!437 = !DIImportedEntity(tag: DW_TAG_imported_declaration, scope: !11, entity: !438, file: !410, line: 357)
!438 = !DISubprogram(name: "expf", scope: !415, file: !415, line: 360, type: !421, flags: DIFlagPrototyped, spFlags: 0)
!439 = !DIImportedEntity(tag: DW_TAG_imported_declaration, scope: !11, entity: !440, file: !410, line: 360)
!440 = !DISubprogram(name: "fabsf", scope: !415, file: !415, line: 416, type: !421, flags: DIFlagPrototyped, spFlags: 0)
!441 = !DIImportedEntity(tag: DW_TAG_imported_declaration, scope: !11, entity: !442, file: !410, line: 362)
!442 = !DISubprogram(name: "floorf", scope: !415, file: !415, line: 459, type: !421, flags: DIFlagPrototyped, spFlags: 0)
!443 = !DIImportedEntity(tag: DW_TAG_imported_declaration, scope: !11, entity: !444, file: !410, line: 365)
!444 = !DISubprogram(name: "fmodf", scope: !415, file: !415, line: 499, type: !429, flags: DIFlagPrototyped, spFlags: 0)
!445 = !DIImportedEntity(tag: DW_TAG_imported_declaration, scope: !11, entity: !446, file: !410, line: 368)
!446 = !DISubprogram(name: "frexpf", scope: !415, file: !415, line: 400, type: !447, flags: DIFlagPrototyped, spFlags: 0)
!447 = !DISubroutineType(types: !448)
!448 = !{!204, !204, !449}
!449 = !DIDerivedType(tag: DW_TAG_pointer_type, baseType: !33, size: 64)
!450 = !DIImportedEntity(tag: DW_TAG_imported_declaration, scope: !11, entity: !451, file: !410, line: 370)
!451 = !DISubprogram(name: "ldexpf", scope: !415, file: !415, line: 396, type: !452, flags: DIFlagPrototyped, spFlags: 0)
!452 = !DISubroutineType(types: !453)
!453 = !{!204, !204, !33}
!454 = !DIImportedEntity(tag: DW_TAG_imported_declaration, scope: !11, entity: !455, file: !410, line: 373)
!455 = !DISubprogram(name: "logf", scope: !415, file: !415, line: 372, type: !421, flags: DIFlagPrototyped, spFlags: 0)
!456 = !DIImportedEntity(tag: DW_TAG_imported_declaration, scope: !11, entity: !457, file: !410, line: 376)
!457 = !DISubprogram(name: "log10f", scope: !415, file: !415, line: 376, type: !421, flags: DIFlagPrototyped, spFlags: 0)
!458 = !DIImportedEntity(tag: DW_TAG_imported_declaration, scope: !11, entity: !459, file: !410, line: 377)
!459 = !DISubprogram(name: "modf", linkageName: "_Z4modfB6v15006ePe", scope: !406, file: !406, line: 996, type: !460, flags: DIFlagPrototyped, spFlags: 0)
!460 = !DISubroutineType(types: !461)
!461 = !{!153, !153, !462}
!462 = !DIDerivedType(tag: DW_TAG_pointer_type, baseType: !153, size: 64)
!463 = !DIImportedEntity(tag: DW_TAG_imported_declaration, scope: !11, entity: !464, file: !410, line: 378)
!464 = !DISubprogram(name: "modff", scope: !415, file: !415, line: 392, type: !465, flags: DIFlagPrototyped, spFlags: 0)
!465 = !DISubroutineType(types: !466)
!466 = !{!204, !204, !467}
!467 = !DIDerivedType(tag: DW_TAG_pointer_type, baseType: !204, size: 64)
!468 = !DIImportedEntity(tag: DW_TAG_imported_declaration, scope: !11, entity: !469, file: !410, line: 381)
!469 = !DISubprogram(name: "powf", scope: !415, file: !415, line: 428, type: !429, flags: DIFlagPrototyped, spFlags: 0)
!470 = !DIImportedEntity(tag: DW_TAG_imported_declaration, scope: !11, entity: !471, file: !410, line: 384)
!471 = !DISubprogram(name: "sinf", scope: !415, file: !415, line: 328, type: !421, flags: DIFlagPrototyped, spFlags: 0)
!472 = !DIImportedEntity(tag: DW_TAG_imported_declaration, scope: !11, entity: !473, file: !410, line: 386)
!473 = !DISubprogram(name: "sinhf", scope: !415, file: !415, line: 352, type: !421, flags: DIFlagPrototyped, spFlags: 0)
!474 = !DIImportedEntity(tag: DW_TAG_imported_declaration, scope: !11, entity: !475, file: !410, line: 389)
!475 = !DISubprogram(name: "sqrtf", scope: !415, file: !415, line: 432, type: !421, flags: DIFlagPrototyped, spFlags: 0)
!476 = !DIImportedEntity(tag: DW_TAG_imported_declaration, scope: !11, entity: !477, file: !410, line: 391)
!477 = !DISubprogram(name: "tanf", scope: !415, file: !415, line: 332, type: !421, flags: DIFlagPrototyped, spFlags: 0)
!478 = !DIImportedEntity(tag: DW_TAG_imported_declaration, scope: !11, entity: !479, file: !410, line: 394)
!479 = !DISubprogram(name: "tanhf", scope: !415, file: !415, line: 356, type: !421, flags: DIFlagPrototyped, spFlags: 0)
!480 = !DIImportedEntity(tag: DW_TAG_imported_declaration, scope: !11, entity: !481, file: !410, line: 397)
!481 = !DISubprogram(name: "acoshf", scope: !415, file: !415, line: 336, type: !421, flags: DIFlagPrototyped, spFlags: 0)
!482 = !DIImportedEntity(tag: DW_TAG_imported_declaration, scope: !11, entity: !483, file: !410, line: 399)
!483 = !DISubprogram(name: "asinhf", scope: !415, file: !415, line: 340, type: !421, flags: DIFlagPrototyped, spFlags: 0)
!484 = !DIImportedEntity(tag: DW_TAG_imported_declaration, scope: !11, entity: !485, file: !410, line: 401)
!485 = !DISubprogram(name: "atanhf", scope: !415, file: !415, line: 344, type: !421, flags: DIFlagPrototyped, spFlags: 0)
!486 = !DIImportedEntity(tag: DW_TAG_imported_declaration, scope: !11, entity: !487, file: !410, line: 403)
!487 = !DISubprogram(name: "cbrtf", scope: !415, file: !415, line: 420, type: !421, flags: DIFlagPrototyped, spFlags: 0)
!488 = !DIImportedEntity(tag: DW_TAG_imported_declaration, scope: !11, entity: !489, file: !410, line: 406)
!489 = !DISubprogram(name: "copysignf", scope: !415, file: !415, line: 511, type: !429, flags: DIFlagPrototyped, spFlags: 0)
!490 = !DIImportedEntity(tag: DW_TAG_imported_declaration, scope: !11, entity: !491, file: !410, line: 409)
!491 = !DISubprogram(name: "erff", scope: !415, file: !415, line: 436, type: !421, flags: DIFlagPrototyped, spFlags: 0)
!492 = !DIImportedEntity(tag: DW_TAG_imported_declaration, scope: !11, entity: !493, file: !410, line: 411)
!493 = !DISubprogram(name: "erfcf", scope: !415, file: !415, line: 440, type: !421, flags: DIFlagPrototyped, spFlags: 0)
!494 = !DIImportedEntity(tag: DW_TAG_imported_declaration, scope: !11, entity: !495, file: !410, line: 413)
!495 = !DISubprogram(name: "exp2f", scope: !415, file: !415, line: 364, type: !421, flags: DIFlagPrototyped, spFlags: 0)
!496 = !DIImportedEntity(tag: DW_TAG_imported_declaration, scope: !11, entity: !497, file: !410, line: 415)
!497 = !DISubprogram(name: "expm1f", scope: !415, file: !415, line: 368, type: !421, flags: DIFlagPrototyped, spFlags: 0)
!498 = !DIImportedEntity(tag: DW_TAG_imported_declaration, scope: !11, entity: !499, file: !410, line: 417)
!499 = !DISubprogram(name: "fdimf", scope: !415, file: !415, line: 527, type: !429, flags: DIFlagPrototyped, spFlags: 0)
!500 = !DIImportedEntity(tag: DW_TAG_imported_declaration, scope: !11, entity: !501, file: !410, line: 418)
!501 = !DISubprogram(name: "fmaf", scope: !415, file: !415, line: 539, type: !502, flags: DIFlagPrototyped, spFlags: 0)
!502 = !DISubroutineType(types: !503)
!503 = !{!204, !204, !204, !204}
!504 = !DIImportedEntity(tag: DW_TAG_imported_declaration, scope: !11, entity: !505, file: !410, line: 421)
!505 = !DISubprogram(name: "fmaxf", scope: !415, file: !415, line: 531, type: !429, flags: DIFlagPrototyped, spFlags: 0)
!506 = !DIImportedEntity(tag: DW_TAG_imported_declaration, scope: !11, entity: !507, file: !410, line: 423)
!507 = !DISubprogram(name: "fminf", scope: !415, file: !415, line: 535, type: !429, flags: DIFlagPrototyped, spFlags: 0)
!508 = !DIImportedEntity(tag: DW_TAG_imported_declaration, scope: !11, entity: !509, file: !410, line: 425)
!509 = !DISubprogram(name: "hypotf", scope: !415, file: !415, line: 424, type: !429, flags: DIFlagPrototyped, spFlags: 0)
!510 = !DIImportedEntity(tag: DW_TAG_imported_declaration, scope: !11, entity: !511, file: !410, line: 427)
!511 = !DISubprogram(name: "ilogbf", scope: !415, file: !415, line: 404, type: !512, flags: DIFlagPrototyped, spFlags: 0)
!512 = !DISubroutineType(types: !513)
!513 = !{!33, !204}
!514 = !DIImportedEntity(tag: DW_TAG_imported_declaration, scope: !11, entity: !515, file: !410, line: 429)
!515 = !DISubprogram(name: "lgammaf", scope: !415, file: !415, line: 447, type: !421, flags: DIFlagPrototyped, spFlags: 0)
!516 = !DIImportedEntity(tag: DW_TAG_imported_declaration, scope: !11, entity: !517, file: !410, line: 431)
!517 = !DISubprogram(name: "llrintf", scope: !415, file: !415, line: 486, type: !518, flags: DIFlagPrototyped, spFlags: 0)
!518 = !DISubroutineType(types: !519)
!519 = !{!26, !204}
!520 = !DIImportedEntity(tag: DW_TAG_imported_declaration, scope: !11, entity: !521, file: !410, line: 433)
!521 = !DISubprogram(name: "llroundf", scope: !415, file: !415, line: 490, type: !518, flags: DIFlagPrototyped, spFlags: 0)
!522 = !DIImportedEntity(tag: DW_TAG_imported_declaration, scope: !11, entity: !523, file: !410, line: 435)
!523 = !DISubprogram(name: "log1pf", scope: !415, file: !415, line: 384, type: !421, flags: DIFlagPrototyped, spFlags: 0)
!524 = !DIImportedEntity(tag: DW_TAG_imported_declaration, scope: !11, entity: !525, file: !410, line: 437)
!525 = !DISubprogram(name: "log2f", scope: !415, file: !415, line: 380, type: !421, flags: DIFlagPrototyped, spFlags: 0)
!526 = !DIImportedEntity(tag: DW_TAG_imported_declaration, scope: !11, entity: !527, file: !410, line: 439)
!527 = !DISubprogram(name: "logbf", scope: !415, file: !415, line: 388, type: !421, flags: DIFlagPrototyped, spFlags: 0)
!528 = !DIImportedEntity(tag: DW_TAG_imported_declaration, scope: !11, entity: !529, file: !410, line: 441)
!529 = !DISubprogram(name: "lrintf", scope: !415, file: !415, line: 471, type: !530, flags: DIFlagPrototyped, spFlags: 0)
!530 = !DISubroutineType(types: !531)
!531 = !{!129, !204}
!532 = !DIImportedEntity(tag: DW_TAG_imported_declaration, scope: !11, entity: !533, file: !410, line: 443)
!533 = !DISubprogram(name: "lroundf", scope: !415, file: !415, line: 479, type: !530, flags: DIFlagPrototyped, spFlags: 0)
!534 = !DIImportedEntity(tag: DW_TAG_imported_declaration, scope: !11, entity: !535, file: !410, line: 445)
!535 = !DISubprogram(name: "nan", scope: !415, file: !415, line: 516, type: !177, flags: DIFlagPrototyped, spFlags: 0)
!536 = !DIImportedEntity(tag: DW_TAG_imported_declaration, scope: !11, entity: !537, file: !410, line: 446)
!537 = !DISubprogram(name: "nanf", scope: !415, file: !415, line: 515, type: !538, flags: DIFlagPrototyped, spFlags: 0)
!538 = !DISubroutineType(types: !539)
!539 = !{!204, !180}
!540 = !DIImportedEntity(tag: DW_TAG_imported_declaration, scope: !11, entity: !541, file: !410, line: 449)
!541 = !DISubprogram(name: "nearbyintf", scope: !415, file: !415, line: 463, type: !421, flags: DIFlagPrototyped, spFlags: 0)
!542 = !DIImportedEntity(tag: DW_TAG_imported_declaration, scope: !11, entity: !543, file: !410, line: 451)
!543 = !DISubprogram(name: "nextafterf", scope: !415, file: !415, line: 519, type: !429, flags: DIFlagPrototyped, spFlags: 0)
!544 = !DIImportedEntity(tag: DW_TAG_imported_declaration, scope: !11, entity: !545, file: !410, line: 453)
!545 = !DISubprogram(name: "nexttowardf", scope: !415, file: !415, line: 524, type: !546, flags: DIFlagPrototyped, spFlags: 0)
!546 = !DISubroutineType(types: !547)
!547 = !{!204, !204, !153}
!548 = !DIImportedEntity(tag: DW_TAG_imported_declaration, scope: !11, entity: !549, file: !410, line: 455)
!549 = !DISubprogram(name: "remainderf", scope: !415, file: !415, line: 503, type: !429, flags: DIFlagPrototyped, spFlags: 0)
!550 = !DIImportedEntity(tag: DW_TAG_imported_declaration, scope: !11, entity: !551, file: !410, line: 457)
!551 = !DISubprogram(name: "remquof", scope: !415, file: !415, line: 507, type: !552, flags: DIFlagPrototyped, spFlags: 0)
!552 = !DISubroutineType(types: !553)
!553 = !{!204, !204, !204, !449}
!554 = !DIImportedEntity(tag: DW_TAG_imported_declaration, scope: !11, entity: !555, file: !410, line: 459)
!555 = !DISubprogram(name: "rintf", scope: !415, file: !415, line: 467, type: !421, flags: DIFlagPrototyped, spFlags: 0)
!556 = !DIImportedEntity(tag: DW_TAG_imported_declaration, scope: !11, entity: !557, file: !410, line: 461)
!557 = !DISubprogram(name: "roundf", scope: !415, file: !415, line: 475, type: !421, flags: DIFlagPrototyped, spFlags: 0)
!558 = !DIImportedEntity(tag: DW_TAG_imported_declaration, scope: !11, entity: !559, file: !410, line: 463)
!559 = !DISubprogram(name: "scalblnf", scope: !415, file: !415, line: 412, type: !560, flags: DIFlagPrototyped, spFlags: 0)
!560 = !DISubroutineType(types: !561)
!561 = !{!204, !204, !129}
!562 = !DIImportedEntity(tag: DW_TAG_imported_declaration, scope: !11, entity: !563, file: !410, line: 465)
!563 = !DISubprogram(name: "scalbnf", scope: !415, file: !415, line: 408, type: !452, flags: DIFlagPrototyped, spFlags: 0)
!564 = !DIImportedEntity(tag: DW_TAG_imported_declaration, scope: !11, entity: !565, file: !410, line: 467)
!565 = !DISubprogram(name: "tgammaf", scope: !415, file: !415, line: 451, type: !421, flags: DIFlagPrototyped, spFlags: 0)
!566 = !DIImportedEntity(tag: DW_TAG_imported_declaration, scope: !11, entity: !567, file: !410, line: 469)
!567 = !DISubprogram(name: "truncf", scope: !415, file: !415, line: 495, type: !421, flags: DIFlagPrototyped, spFlags: 0)
!568 = !DIImportedEntity(tag: DW_TAG_imported_declaration, scope: !11, entity: !569, file: !410, line: 471)
!569 = !DISubprogram(name: "acosl", scope: !415, file: !415, line: 310, type: !288, flags: DIFlagPrototyped, spFlags: 0)
!570 = !DIImportedEntity(tag: DW_TAG_imported_declaration, scope: !11, entity: !571, file: !410, line: 472)
!571 = !DISubprogram(name: "asinl", scope: !415, file: !415, line: 314, type: !288, flags: DIFlagPrototyped, spFlags: 0)
!572 = !DIImportedEntity(tag: DW_TAG_imported_declaration, scope: !11, entity: !573, file: !410, line: 473)
!573 = !DISubprogram(name: "atanl", scope: !415, file: !415, line: 318, type: !288, flags: DIFlagPrototyped, spFlags: 0)
!574 = !DIImportedEntity(tag: DW_TAG_imported_declaration, scope: !11, entity: !575, file: !410, line: 474)
!575 = !DISubprogram(name: "atan2l", scope: !415, file: !415, line: 322, type: !576, flags: DIFlagPrototyped, spFlags: 0)
!576 = !DISubroutineType(types: !577)
!577 = !{!153, !153, !153}
!578 = !DIImportedEntity(tag: DW_TAG_imported_declaration, scope: !11, entity: !579, file: !410, line: 475)
!579 = !DISubprogram(name: "ceill", scope: !415, file: !415, line: 457, type: !288, flags: DIFlagPrototyped, spFlags: 0)
!580 = !DIImportedEntity(tag: DW_TAG_imported_declaration, scope: !11, entity: !581, file: !410, line: 476)
!581 = !DISubprogram(name: "cosl", scope: !415, file: !415, line: 326, type: !288, flags: DIFlagPrototyped, spFlags: 0)
!582 = !DIImportedEntity(tag: DW_TAG_imported_declaration, scope: !11, entity: !583, file: !410, line: 477)
!583 = !DISubprogram(name: "coshl", scope: !415, file: !415, line: 350, type: !288, flags: DIFlagPrototyped, spFlags: 0)
!584 = !DIImportedEntity(tag: DW_TAG_imported_declaration, scope: !11, entity: !585, file: !410, line: 478)
!585 = !DISubprogram(name: "expl", scope: !415, file: !415, line: 362, type: !288, flags: DIFlagPrototyped, spFlags: 0)
!586 = !DIImportedEntity(tag: DW_TAG_imported_declaration, scope: !11, entity: !587, file: !410, line: 479)
!587 = !DISubprogram(name: "fabsl", scope: !415, file: !415, line: 418, type: !288, flags: DIFlagPrototyped, spFlags: 0)
!588 = !DIImportedEntity(tag: DW_TAG_imported_declaration, scope: !11, entity: !589, file: !410, line: 480)
!589 = !DISubprogram(name: "floorl", scope: !415, file: !415, line: 461, type: !288, flags: DIFlagPrototyped, spFlags: 0)
!590 = !DIImportedEntity(tag: DW_TAG_imported_declaration, scope: !11, entity: !591, file: !410, line: 481)
!591 = !DISubprogram(name: "fmodl", scope: !415, file: !415, line: 501, type: !576, flags: DIFlagPrototyped, spFlags: 0)
!592 = !DIImportedEntity(tag: DW_TAG_imported_declaration, scope: !11, entity: !593, file: !410, line: 482)
!593 = !DISubprogram(name: "frexpl", scope: !415, file: !415, line: 402, type: !594, flags: DIFlagPrototyped, spFlags: 0)
!594 = !DISubroutineType(types: !595)
!595 = !{!153, !153, !449}
!596 = !DIImportedEntity(tag: DW_TAG_imported_declaration, scope: !11, entity: !597, file: !410, line: 483)
!597 = !DISubprogram(name: "ldexpl", scope: !415, file: !415, line: 398, type: !598, flags: DIFlagPrototyped, spFlags: 0)
!598 = !DISubroutineType(types: !599)
!599 = !{!153, !153, !33}
!600 = !DIImportedEntity(tag: DW_TAG_imported_declaration, scope: !11, entity: !601, file: !410, line: 484)
!601 = !DISubprogram(name: "logl", scope: !415, file: !415, line: 374, type: !288, flags: DIFlagPrototyped, spFlags: 0)
!602 = !DIImportedEntity(tag: DW_TAG_imported_declaration, scope: !11, entity: !603, file: !410, line: 485)
!603 = !DISubprogram(name: "log10l", scope: !415, file: !415, line: 378, type: !288, flags: DIFlagPrototyped, spFlags: 0)
!604 = !DIImportedEntity(tag: DW_TAG_imported_declaration, scope: !11, entity: !605, file: !410, line: 486)
!605 = !DISubprogram(name: "modfl", scope: !415, file: !415, line: 394, type: !460, flags: DIFlagPrototyped, spFlags: 0)
!606 = !DIImportedEntity(tag: DW_TAG_imported_declaration, scope: !11, entity: !607, file: !410, line: 487)
!607 = !DISubprogram(name: "powl", scope: !415, file: !415, line: 430, type: !576, flags: DIFlagPrototyped, spFlags: 0)
!608 = !DIImportedEntity(tag: DW_TAG_imported_declaration, scope: !11, entity: !609, file: !410, line: 488)
!609 = !DISubprogram(name: "sinl", scope: !415, file: !415, line: 330, type: !288, flags: DIFlagPrototyped, spFlags: 0)
!610 = !DIImportedEntity(tag: DW_TAG_imported_declaration, scope: !11, entity: !611, file: !410, line: 489)
!611 = !DISubprogram(name: "sinhl", scope: !415, file: !415, line: 354, type: !288, flags: DIFlagPrototyped, spFlags: 0)
!612 = !DIImportedEntity(tag: DW_TAG_imported_declaration, scope: !11, entity: !613, file: !410, line: 490)
!613 = !DISubprogram(name: "sqrtl", scope: !415, file: !415, line: 434, type: !288, flags: DIFlagPrototyped, spFlags: 0)
!614 = !DIImportedEntity(tag: DW_TAG_imported_declaration, scope: !11, entity: !615, file: !410, line: 491)
!615 = !DISubprogram(name: "tanl", scope: !415, file: !415, line: 334, type: !288, flags: DIFlagPrototyped, spFlags: 0)
!616 = !DIImportedEntity(tag: DW_TAG_imported_declaration, scope: !11, entity: !617, file: !410, line: 493)
!617 = !DISubprogram(name: "tanhl", scope: !415, file: !415, line: 358, type: !288, flags: DIFlagPrototyped, spFlags: 0)
!618 = !DIImportedEntity(tag: DW_TAG_imported_declaration, scope: !11, entity: !619, file: !410, line: 494)
!619 = !DISubprogram(name: "acoshl", scope: !415, file: !415, line: 338, type: !288, flags: DIFlagPrototyped, spFlags: 0)
!620 = !DIImportedEntity(tag: DW_TAG_imported_declaration, scope: !11, entity: !621, file: !410, line: 495)
!621 = !DISubprogram(name: "asinhl", scope: !415, file: !415, line: 342, type: !288, flags: DIFlagPrototyped, spFlags: 0)
!622 = !DIImportedEntity(tag: DW_TAG_imported_declaration, scope: !11, entity: !623, file: !410, line: 496)
!623 = !DISubprogram(name: "atanhl", scope: !415, file: !415, line: 346, type: !288, flags: DIFlagPrototyped, spFlags: 0)
!624 = !DIImportedEntity(tag: DW_TAG_imported_declaration, scope: !11, entity: !625, file: !410, line: 497)
!625 = !DISubprogram(name: "cbrtl", scope: !415, file: !415, line: 422, type: !288, flags: DIFlagPrototyped, spFlags: 0)
!626 = !DIImportedEntity(tag: DW_TAG_imported_declaration, scope: !11, entity: !627, file: !410, line: 499)
!627 = !DISubprogram(name: "copysignl", scope: !415, file: !415, line: 513, type: !576, flags: DIFlagPrototyped, spFlags: 0)
!628 = !DIImportedEntity(tag: DW_TAG_imported_declaration, scope: !11, entity: !629, file: !410, line: 501)
!629 = !DISubprogram(name: "erfl", scope: !415, file: !415, line: 438, type: !288, flags: DIFlagPrototyped, spFlags: 0)
!630 = !DIImportedEntity(tag: DW_TAG_imported_declaration, scope: !11, entity: !631, file: !410, line: 502)
!631 = !DISubprogram(name: "erfcl", scope: !415, file: !415, line: 442, type: !288, flags: DIFlagPrototyped, spFlags: 0)
!632 = !DIImportedEntity(tag: DW_TAG_imported_declaration, scope: !11, entity: !633, file: !410, line: 503)
!633 = !DISubprogram(name: "exp2l", scope: !415, file: !415, line: 366, type: !288, flags: DIFlagPrototyped, spFlags: 0)
!634 = !DIImportedEntity(tag: DW_TAG_imported_declaration, scope: !11, entity: !635, file: !410, line: 504)
!635 = !DISubprogram(name: "expm1l", scope: !415, file: !415, line: 370, type: !288, flags: DIFlagPrototyped, spFlags: 0)
!636 = !DIImportedEntity(tag: DW_TAG_imported_declaration, scope: !11, entity: !637, file: !410, line: 505)
!637 = !DISubprogram(name: "fdiml", scope: !415, file: !415, line: 529, type: !576, flags: DIFlagPrototyped, spFlags: 0)
!638 = !DIImportedEntity(tag: DW_TAG_imported_declaration, scope: !11, entity: !639, file: !410, line: 506)
!639 = !DISubprogram(name: "fmal", scope: !415, file: !415, line: 541, type: !640, flags: DIFlagPrototyped, spFlags: 0)
!640 = !DISubroutineType(types: !641)
!641 = !{!153, !153, !153, !153}
!642 = !DIImportedEntity(tag: DW_TAG_imported_declaration, scope: !11, entity: !643, file: !410, line: 507)
!643 = !DISubprogram(name: "fmaxl", scope: !415, file: !415, line: 533, type: !576, flags: DIFlagPrototyped, spFlags: 0)
!644 = !DIImportedEntity(tag: DW_TAG_imported_declaration, scope: !11, entity: !645, file: !410, line: 508)
!645 = !DISubprogram(name: "fminl", scope: !415, file: !415, line: 537, type: !576, flags: DIFlagPrototyped, spFlags: 0)
!646 = !DIImportedEntity(tag: DW_TAG_imported_declaration, scope: !11, entity: !647, file: !410, line: 509)
!647 = !DISubprogram(name: "hypotl", scope: !415, file: !415, line: 426, type: !576, flags: DIFlagPrototyped, spFlags: 0)
!648 = !DIImportedEntity(tag: DW_TAG_imported_declaration, scope: !11, entity: !649, file: !410, line: 510)
!649 = !DISubprogram(name: "ilogbl", scope: !415, file: !415, line: 406, type: !650, flags: DIFlagPrototyped, spFlags: 0)
!650 = !DISubroutineType(types: !651)
!651 = !{!33, !153}
!652 = !DIImportedEntity(tag: DW_TAG_imported_declaration, scope: !11, entity: !653, file: !410, line: 511)
!653 = !DISubprogram(name: "lgammal", scope: !415, file: !415, line: 449, type: !288, flags: DIFlagPrototyped, spFlags: 0)
!654 = !DIImportedEntity(tag: DW_TAG_imported_declaration, scope: !11, entity: !655, file: !410, line: 512)
!655 = !DISubprogram(name: "llrintl", scope: !415, file: !415, line: 488, type: !656, flags: DIFlagPrototyped, spFlags: 0)
!656 = !DISubroutineType(types: !657)
!657 = !{!26, !153}
!658 = !DIImportedEntity(tag: DW_TAG_imported_declaration, scope: !11, entity: !659, file: !410, line: 513)
!659 = !DISubprogram(name: "llroundl", scope: !415, file: !415, line: 492, type: !656, flags: DIFlagPrototyped, spFlags: 0)
!660 = !DIImportedEntity(tag: DW_TAG_imported_declaration, scope: !11, entity: !661, file: !410, line: 514)
!661 = !DISubprogram(name: "log1pl", scope: !415, file: !415, line: 386, type: !288, flags: DIFlagPrototyped, spFlags: 0)
!662 = !DIImportedEntity(tag: DW_TAG_imported_declaration, scope: !11, entity: !663, file: !410, line: 515)
!663 = !DISubprogram(name: "log2l", scope: !415, file: !415, line: 382, type: !288, flags: DIFlagPrototyped, spFlags: 0)
!664 = !DIImportedEntity(tag: DW_TAG_imported_declaration, scope: !11, entity: !665, file: !410, line: 516)
!665 = !DISubprogram(name: "logbl", scope: !415, file: !415, line: 390, type: !288, flags: DIFlagPrototyped, spFlags: 0)
!666 = !DIImportedEntity(tag: DW_TAG_imported_declaration, scope: !11, entity: !667, file: !410, line: 517)
!667 = !DISubprogram(name: "lrintl", scope: !415, file: !415, line: 473, type: !668, flags: DIFlagPrototyped, spFlags: 0)
!668 = !DISubroutineType(types: !669)
!669 = !{!129, !153}
!670 = !DIImportedEntity(tag: DW_TAG_imported_declaration, scope: !11, entity: !671, file: !410, line: 518)
!671 = !DISubprogram(name: "lroundl", scope: !415, file: !415, line: 481, type: !668, flags: DIFlagPrototyped, spFlags: 0)
!672 = !DIImportedEntity(tag: DW_TAG_imported_declaration, scope: !11, entity: !673, file: !410, line: 519)
!673 = !DISubprogram(name: "nanl", scope: !415, file: !415, line: 517, type: !674, flags: DIFlagPrototyped, spFlags: 0)
!674 = !DISubroutineType(types: !675)
!675 = !{!153, !180}
!676 = !DIImportedEntity(tag: DW_TAG_imported_declaration, scope: !11, entity: !677, file: !410, line: 520)
!677 = !DISubprogram(name: "nearbyintl", scope: !415, file: !415, line: 465, type: !288, flags: DIFlagPrototyped, spFlags: 0)
!678 = !DIImportedEntity(tag: DW_TAG_imported_declaration, scope: !11, entity: !679, file: !410, line: 521)
!679 = !DISubprogram(name: "nextafterl", scope: !415, file: !415, line: 521, type: !576, flags: DIFlagPrototyped, spFlags: 0)
!680 = !DIImportedEntity(tag: DW_TAG_imported_declaration, scope: !11, entity: !681, file: !410, line: 522)
!681 = !DISubprogram(name: "nexttowardl", scope: !415, file: !415, line: 525, type: !576, flags: DIFlagPrototyped, spFlags: 0)
!682 = !DIImportedEntity(tag: DW_TAG_imported_declaration, scope: !11, entity: !683, file: !410, line: 523)
!683 = !DISubprogram(name: "remainderl", scope: !415, file: !415, line: 505, type: !576, flags: DIFlagPrototyped, spFlags: 0)
!684 = !DIImportedEntity(tag: DW_TAG_imported_declaration, scope: !11, entity: !685, file: !410, line: 524)
!685 = !DISubprogram(name: "remquol", scope: !415, file: !415, line: 509, type: !686, flags: DIFlagPrototyped, spFlags: 0)
!686 = !DISubroutineType(types: !687)
!687 = !{!153, !153, !153, !449}
!688 = !DIImportedEntity(tag: DW_TAG_imported_declaration, scope: !11, entity: !689, file: !410, line: 525)
!689 = !DISubprogram(name: "rintl", scope: !415, file: !415, line: 469, type: !288, flags: DIFlagPrototyped, spFlags: 0)
!690 = !DIImportedEntity(tag: DW_TAG_imported_declaration, scope: !11, entity: !691, file: !410, line: 526)
!691 = !DISubprogram(name: "roundl", scope: !415, file: !415, line: 477, type: !288, flags: DIFlagPrototyped, spFlags: 0)
!692 = !DIImportedEntity(tag: DW_TAG_imported_declaration, scope: !11, entity: !693, file: !410, line: 527)
!693 = !DISubprogram(name: "scalblnl", scope: !415, file: !415, line: 414, type: !694, flags: DIFlagPrototyped, spFlags: 0)
!694 = !DISubroutineType(types: !695)
!695 = !{!153, !153, !129}
!696 = !DIImportedEntity(tag: DW_TAG_imported_declaration, scope: !11, entity: !697, file: !410, line: 528)
!697 = !DISubprogram(name: "scalbnl", scope: !415, file: !415, line: 410, type: !598, flags: DIFlagPrototyped, spFlags: 0)
!698 = !DIImportedEntity(tag: DW_TAG_imported_declaration, scope: !11, entity: !699, file: !410, line: 529)
!699 = !DISubprogram(name: "tgammal", scope: !415, file: !415, line: 453, type: !288, flags: DIFlagPrototyped, spFlags: 0)
!700 = !DIImportedEntity(tag: DW_TAG_imported_declaration, scope: !11, entity: !701, file: !410, line: 530)
!701 = !DISubprogram(name: "truncl", scope: !415, file: !415, line: 497, type: !288, flags: DIFlagPrototyped, spFlags: 0)
!702 = !DIImportedEntity(tag: DW_TAG_imported_declaration, scope: !11, entity: !703, file: !706, line: 58)
!703 = !DIDerivedType(tag: DW_TAG_typedef, name: "clock_t", file: !704, line: 31, baseType: !705)
!704 = !DIFile(filename: "/Library/Developer/CommandLineTools/SDKs/MacOSX.sdk/usr/include/sys/_types/_clock_t.h", directory: "")
!705 = !DIDerivedType(tag: DW_TAG_typedef, name: "__darwin_clock_t", file: !16, line: 119, baseType: !133)
!706 = !DIFile(filename: "/Library/Developer/CommandLineTools/SDKs/MacOSX.sdk/usr/include/c++/v1/ctime", directory: "")
!707 = !DIImportedEntity(tag: DW_TAG_imported_declaration, scope: !11, entity: !149, file: !706, line: 60)
!708 = !DIImportedEntity(tag: DW_TAG_imported_declaration, scope: !11, entity: !709, file: !706, line: 62)
!709 = !DIDerivedType(tag: DW_TAG_typedef, name: "time_t", file: !710, line: 31, baseType: !711)
!710 = !DIFile(filename: "/Library/Developer/CommandLineTools/SDKs/MacOSX.sdk/usr/include/sys/_types/_time_t.h", directory: "")
!711 = !DIDerivedType(tag: DW_TAG_typedef, name: "__darwin_time_t", file: !16, line: 122, baseType: !129)
!712 = !DIImportedEntity(tag: DW_TAG_imported_declaration, scope: !11, entity: !713, file: !706, line: 63)
!713 = distinct !DICompositeType(tag: DW_TAG_structure_type, name: "tm", file: !714, line: 75, size: 448, flags: DIFlagTypePassByValue, elements: !715, identifier: "_ZTS2tm")
!714 = !DIFile(filename: "/Library/Developer/CommandLineTools/SDKs/MacOSX.sdk/usr/include/time.h", directory: "")
!715 = !{!716, !717, !718, !719, !720, !721, !722, !723, !724, !725, !726}
!716 = !DIDerivedType(tag: DW_TAG_member, name: "tm_sec", scope: !713, file: !714, line: 76, baseType: !33, size: 32)
!717 = !DIDerivedType(tag: DW_TAG_member, name: "tm_min", scope: !713, file: !714, line: 77, baseType: !33, size: 32, offset: 32)
!718 = !DIDerivedType(tag: DW_TAG_member, name: "tm_hour", scope: !713, file: !714, line: 78, baseType: !33, size: 32, offset: 64)
!719 = !DIDerivedType(tag: DW_TAG_member, name: "tm_mday", scope: !713, file: !714, line: 79, baseType: !33, size: 32, offset: 96)
!720 = !DIDerivedType(tag: DW_TAG_member, name: "tm_mon", scope: !713, file: !714, line: 80, baseType: !33, size: 32, offset: 128)
!721 = !DIDerivedType(tag: DW_TAG_member, name: "tm_year", scope: !713, file: !714, line: 81, baseType: !33, size: 32, offset: 160)
!722 = !DIDerivedType(tag: DW_TAG_member, name: "tm_wday", scope: !713, file: !714, line: 82, baseType: !33, size: 32, offset: 192)
!723 = !DIDerivedType(tag: DW_TAG_member, name: "tm_yday", scope: !713, file: !714, line: 83, baseType: !33, size: 32, offset: 224)
!724 = !DIDerivedType(tag: DW_TAG_member, name: "tm_isdst", scope: !713, file: !714, line: 84, baseType: !33, size: 32, offset: 256)
!725 = !DIDerivedType(tag: DW_TAG_member, name: "tm_gmtoff", scope: !713, file: !714, line: 85, baseType: !129, size: 64, offset: 320)
!726 = !DIDerivedType(tag: DW_TAG_member, name: "tm_zone", scope: !713, file: !714, line: 86, baseType: !199, size: 64, offset: 384)
!727 = !DIImportedEntity(tag: DW_TAG_imported_declaration, scope: !11, entity: !728, file: !706, line: 67)
!728 = !DISubprogram(name: "clock", linkageName: "\01_clock", scope: !714, file: !714, line: 109, type: !729, flags: DIFlagPrototyped, spFlags: 0)
!729 = !DISubroutineType(types: !730)
!730 = !{!703}
!731 = !DIImportedEntity(tag: DW_TAG_imported_declaration, scope: !11, entity: !732, file: !706, line: 68)
!732 = !DISubprogram(name: "difftime", scope: !714, file: !714, line: 111, type: !733, flags: DIFlagPrototyped, spFlags: 0)
!733 = !DISubroutineType(types: !734)
!734 = !{!179, !709, !709}
!735 = !DIImportedEntity(tag: DW_TAG_imported_declaration, scope: !11, entity: !736, file: !706, line: 69)
!736 = !DISubprogram(name: "mktime", linkageName: "\01_mktime", scope: !714, file: !714, line: 115, type: !737, flags: DIFlagPrototyped, spFlags: 0)
!737 = !DISubroutineType(types: !738)
!738 = !{!709, !739}
!739 = !DIDerivedType(tag: DW_TAG_pointer_type, baseType: !713, size: 64)
!740 = !DIImportedEntity(tag: DW_TAG_imported_declaration, scope: !11, entity: !741, file: !706, line: 70)
!741 = !DISubprogram(name: "time", scope: !714, file: !714, line: 118, type: !742, flags: DIFlagPrototyped, spFlags: 0)
!742 = !DISubroutineType(types: !743)
!743 = !{!709, !744}
!744 = !DIDerivedType(tag: DW_TAG_pointer_type, baseType: !709, size: 64)
!745 = !DIImportedEntity(tag: DW_TAG_imported_declaration, scope: !11, entity: !746, file: !706, line: 71)
!746 = !DISubprogram(name: "asctime", scope: !714, file: !714, line: 108, type: !747, flags: DIFlagPrototyped, spFlags: 0)
!747 = !DISubroutineType(types: !748)
!748 = !{!199, !749}
!749 = !DIDerivedType(tag: DW_TAG_pointer_type, baseType: !750, size: 64)
!750 = !DIDerivedType(tag: DW_TAG_const_type, baseType: !713)
!751 = !DIImportedEntity(tag: DW_TAG_imported_declaration, scope: !11, entity: !752, file: !706, line: 72)
!752 = !DISubprogram(name: "ctime", scope: !714, file: !714, line: 110, type: !753, flags: DIFlagPrototyped, spFlags: 0)
!753 = !DISubroutineType(types: !754)
!754 = !{!199, !755}
!755 = !DIDerivedType(tag: DW_TAG_pointer_type, baseType: !756, size: 64)
!756 = !DIDerivedType(tag: DW_TAG_const_type, baseType: !709)
!757 = !DIImportedEntity(tag: DW_TAG_imported_declaration, scope: !11, entity: !758, file: !706, line: 73)
!758 = !DISubprogram(name: "gmtime", scope: !714, file: !714, line: 113, type: !759, flags: DIFlagPrototyped, spFlags: 0)
!759 = !DISubroutineType(types: !760)
!760 = !{!739, !755}
!761 = !DIImportedEntity(tag: DW_TAG_imported_declaration, scope: !11, entity: !762, file: !706, line: 74)
!762 = !DISubprogram(name: "localtime", scope: !714, file: !714, line: 114, type: !759, flags: DIFlagPrototyped, spFlags: 0)
!763 = !DIImportedEntity(tag: DW_TAG_imported_declaration, scope: !11, entity: !764, file: !706, line: 75)
!764 = !DISubprogram(name: "strftime", linkageName: "\01_strftime", scope: !714, file: !714, line: 116, type: !765, flags: DIFlagPrototyped, spFlags: 0)
!765 = !DISubroutineType(types: !766)
!766 = !{!149, !199, !149, !180, !749}
!767 = !DIImportedEntity(tag: DW_TAG_imported_declaration, scope: !11, entity: !768, file: !821, line: 108)
!768 = !DIDerivedType(tag: DW_TAG_typedef, name: "FILE", file: !769, line: 157, baseType: !770)
!769 = !DIFile(filename: "/Library/Developer/CommandLineTools/SDKs/MacOSX.sdk/usr/include/_stdio.h", directory: "")
!770 = distinct !DICompositeType(tag: DW_TAG_structure_type, name: "__sFILE", file: !769, line: 126, size: 1216, flags: DIFlagTypePassByValue, elements: !771, identifier: "_ZTS7__sFILE")
!771 = !{!772, !774, !775, !776, !777, !778, !783, !784, !785, !789, !793, !801, !805, !806, !809, !810, !814, !818, !819, !820}
!772 = !DIDerivedType(tag: DW_TAG_member, name: "_p", scope: !770, file: !769, line: 127, baseType: !773, size: 64)
!773 = !DIDerivedType(tag: DW_TAG_pointer_type, baseType: !79, size: 64)
!774 = !DIDerivedType(tag: DW_TAG_member, name: "_r", scope: !770, file: !769, line: 128, baseType: !33, size: 32, offset: 64)
!775 = !DIDerivedType(tag: DW_TAG_member, name: "_w", scope: !770, file: !769, line: 129, baseType: !33, size: 32, offset: 96)
!776 = !DIDerivedType(tag: DW_TAG_member, name: "_flags", scope: !770, file: !769, line: 130, baseType: !69, size: 16, offset: 128)
!777 = !DIDerivedType(tag: DW_TAG_member, name: "_file", scope: !770, file: !769, line: 131, baseType: !69, size: 16, offset: 144)
!778 = !DIDerivedType(tag: DW_TAG_member, name: "_bf", scope: !770, file: !769, line: 132, baseType: !779, size: 128, offset: 192)
!779 = distinct !DICompositeType(tag: DW_TAG_structure_type, name: "__sbuf", file: !769, line: 92, size: 128, flags: DIFlagTypePassByValue, elements: !780, identifier: "_ZTS6__sbuf")
!780 = !{!781, !782}
!781 = !DIDerivedType(tag: DW_TAG_member, name: "_base", scope: !779, file: !769, line: 93, baseType: !773, size: 64)
!782 = !DIDerivedType(tag: DW_TAG_member, name: "_size", scope: !779, file: !769, line: 94, baseType: !33, size: 32, offset: 64)
!783 = !DIDerivedType(tag: DW_TAG_member, name: "_lbfsize", scope: !770, file: !769, line: 133, baseType: !33, size: 32, offset: 320)
!784 = !DIDerivedType(tag: DW_TAG_member, name: "_cookie", scope: !770, file: !769, line: 136, baseType: !238, size: 64, offset: 384)
!785 = !DIDerivedType(tag: DW_TAG_member, name: "_close", scope: !770, file: !769, line: 137, baseType: !786, size: 64, offset: 448)
!786 = !DIDerivedType(tag: DW_TAG_pointer_type, baseType: !787, size: 64)
!787 = !DISubroutineType(types: !788)
!788 = !{!33, !238}
!789 = !DIDerivedType(tag: DW_TAG_member, name: "_read", scope: !770, file: !769, line: 138, baseType: !790, size: 64, offset: 512)
!790 = !DIDerivedType(tag: DW_TAG_pointer_type, baseType: !791, size: 64)
!791 = !DISubroutineType(types: !792)
!792 = !{!33, !238, !199, !33}
!793 = !DIDerivedType(tag: DW_TAG_member, name: "_seek", scope: !770, file: !769, line: 139, baseType: !794, size: 64, offset: 576)
!794 = !DIDerivedType(tag: DW_TAG_pointer_type, baseType: !795, size: 64)
!795 = !DISubroutineType(types: !796)
!796 = !{!797, !238, !797, !33}
!797 = !DIDerivedType(tag: DW_TAG_typedef, name: "fpos_t", file: !769, line: 81, baseType: !798)
!798 = !DIDerivedType(tag: DW_TAG_typedef, name: "__darwin_off_t", file: !799, line: 71, baseType: !800)
!799 = !DIFile(filename: "/Library/Developer/CommandLineTools/SDKs/MacOSX.sdk/usr/include/sys/_types.h", directory: "")
!800 = !DIDerivedType(tag: DW_TAG_typedef, name: "__int64_t", file: !16, line: 48, baseType: !26)
!801 = !DIDerivedType(tag: DW_TAG_member, name: "_write", scope: !770, file: !769, line: 140, baseType: !802, size: 64, offset: 640)
!802 = !DIDerivedType(tag: DW_TAG_pointer_type, baseType: !803, size: 64)
!803 = !DISubroutineType(types: !804)
!804 = !{!33, !238, !180, !33}
!805 = !DIDerivedType(tag: DW_TAG_member, name: "_ub", scope: !770, file: !769, line: 143, baseType: !779, size: 128, offset: 704)
!806 = !DIDerivedType(tag: DW_TAG_member, name: "_extra", scope: !770, file: !769, line: 144, baseType: !807, size: 64, offset: 832)
!807 = !DIDerivedType(tag: DW_TAG_pointer_type, baseType: !808, size: 64)
!808 = !DICompositeType(tag: DW_TAG_structure_type, name: "__sFILEX", file: !769, line: 98, flags: DIFlagFwdDecl | DIFlagNonTrivial, identifier: "_ZTS8__sFILEX")
!809 = !DIDerivedType(tag: DW_TAG_member, name: "_ur", scope: !770, file: !769, line: 145, baseType: !33, size: 32, offset: 896)
!810 = !DIDerivedType(tag: DW_TAG_member, name: "_ubuf", scope: !770, file: !769, line: 148, baseType: !811, size: 24, offset: 928)
!811 = !DICompositeType(tag: DW_TAG_array_type, baseType: !79, size: 24, elements: !812)
!812 = !{!813}
!813 = !DISubrange(count: 3)
!814 = !DIDerivedType(tag: DW_TAG_member, name: "_nbuf", scope: !770, file: !769, line: 149, baseType: !815, size: 8, offset: 952)
!815 = !DICompositeType(tag: DW_TAG_array_type, baseType: !79, size: 8, elements: !816)
!816 = !{!817}
!817 = !DISubrange(count: 1)
!818 = !DIDerivedType(tag: DW_TAG_member, name: "_lb", scope: !770, file: !769, line: 152, baseType: !779, size: 128, offset: 960)
!819 = !DIDerivedType(tag: DW_TAG_member, name: "_blksize", scope: !770, file: !769, line: 155, baseType: !33, size: 32, offset: 1088)
!820 = !DIDerivedType(tag: DW_TAG_member, name: "_offset", scope: !770, file: !769, line: 156, baseType: !797, size: 64, offset: 1152)
!821 = !DIFile(filename: "/Library/Developer/CommandLineTools/SDKs/MacOSX.sdk/usr/include/c++/v1/cstdio", directory: "")
!822 = !DIImportedEntity(tag: DW_TAG_imported_declaration, scope: !11, entity: !797, file: !821, line: 109)
!823 = !DIImportedEntity(tag: DW_TAG_imported_declaration, scope: !11, entity: !149, file: !821, line: 110)
!824 = !DIImportedEntity(tag: DW_TAG_imported_declaration, scope: !11, entity: !825, file: !821, line: 112)
!825 = !DISubprogram(name: "fclose", scope: !826, file: !826, line: 143, type: !827, flags: DIFlagPrototyped, spFlags: 0)
!826 = !DIFile(filename: "/Library/Developer/CommandLineTools/SDKs/MacOSX.sdk/usr/include/stdio.h", directory: "")
!827 = !DISubroutineType(types: !828)
!828 = !{!33, !829}
!829 = !DIDerivedType(tag: DW_TAG_pointer_type, baseType: !768, size: 64)
!830 = !DIImportedEntity(tag: DW_TAG_imported_declaration, scope: !11, entity: !831, file: !821, line: 113)
!831 = !DISubprogram(name: "fflush", scope: !826, file: !826, line: 146, type: !827, flags: DIFlagPrototyped, spFlags: 0)
!832 = !DIImportedEntity(tag: DW_TAG_imported_declaration, scope: !11, entity: !833, file: !821, line: 114)
!833 = !DISubprogram(name: "setbuf", scope: !826, file: !826, line: 183, type: !834, flags: DIFlagPrototyped, spFlags: 0)
!834 = !DISubroutineType(types: !835)
!835 = !{null, !829, !199}
!836 = !DIImportedEntity(tag: DW_TAG_imported_declaration, scope: !11, entity: !837, file: !821, line: 115)
!837 = !DISubprogram(name: "setvbuf", scope: !826, file: !826, line: 184, type: !838, flags: DIFlagPrototyped, spFlags: 0)
!838 = !DISubroutineType(types: !839)
!839 = !{!33, !829, !199, !33, !149}
!840 = !DIImportedEntity(tag: DW_TAG_imported_declaration, scope: !11, entity: !841, file: !821, line: 116)
!841 = !DISubprogram(name: "fprintf", scope: !826, file: !826, line: 155, type: !842, flags: DIFlagPrototyped, spFlags: 0)
!842 = !DISubroutineType(types: !843)
!843 = !{!33, !829, !180, null}
!844 = !DIImportedEntity(tag: DW_TAG_imported_declaration, scope: !11, entity: !845, file: !821, line: 117)
!845 = !DISubprogram(name: "fscanf", scope: !826, file: !826, line: 161, type: !842, flags: DIFlagPrototyped, spFlags: 0)
!846 = !DIImportedEntity(tag: DW_TAG_imported_declaration, scope: !11, entity: !847, file: !821, line: 118)
!847 = !DISubprogram(name: "snprintf", scope: !826, file: !826, line: 344, type: !848, flags: DIFlagPrototyped, spFlags: 0)
!848 = !DISubroutineType(types: !849)
!849 = !{!33, !199, !149, !180, null}
!850 = !DIImportedEntity(tag: DW_TAG_imported_declaration, scope: !11, entity: !851, file: !821, line: 119)
!851 = !DISubprogram(name: "sprintf", scope: !826, file: !826, line: 190, type: !852, flags: DIFlagPrototyped, spFlags: 0)
!852 = !DISubroutineType(types: !853)
!853 = !{!33, !199, !180, null}
!854 = !DIImportedEntity(tag: DW_TAG_imported_declaration, scope: !11, entity: !855, file: !821, line: 120)
!855 = !DISubprogram(name: "sscanf", scope: !826, file: !826, line: 192, type: !856, flags: DIFlagPrototyped, spFlags: 0)
!856 = !DISubroutineType(types: !857)
!857 = !{!33, !180, !180, null}
!858 = !DIImportedEntity(tag: DW_TAG_imported_declaration, scope: !11, entity: !859, file: !821, line: 121)
!859 = !DISubprogram(name: "vfprintf", scope: !826, file: !826, line: 202, type: !860, flags: DIFlagPrototyped, spFlags: 0)
!860 = !DISubroutineType(types: !861)
!861 = !{!33, !829, !180, !862}
!862 = !DIDerivedType(tag: DW_TAG_pointer_type, baseType: !863, size: 64)
!863 = distinct !DICompositeType(tag: DW_TAG_structure_type, name: "__va_list_tag", size: 192, flags: DIFlagTypePassByValue, elements: !864, identifier: "_ZTS13__va_list_tag")
!864 = !{!865, !866, !867, !868}
!865 = !DIDerivedType(tag: DW_TAG_member, name: "gp_offset", scope: !863, file: !8, baseType: !87, size: 32)
!866 = !DIDerivedType(tag: DW_TAG_member, name: "fp_offset", scope: !863, file: !8, baseType: !87, size: 32, offset: 32)
!867 = !DIDerivedType(tag: DW_TAG_member, name: "overflow_arg_area", scope: !863, file: !8, baseType: !238, size: 64, offset: 64)
!868 = !DIDerivedType(tag: DW_TAG_member, name: "reg_save_area", scope: !863, file: !8, baseType: !238, size: 64, offset: 128)
!869 = !DIImportedEntity(tag: DW_TAG_imported_declaration, scope: !11, entity: !870, file: !821, line: 122)
!870 = !DISubprogram(name: "vfscanf", scope: !826, file: !826, line: 345, type: !860, flags: DIFlagPrototyped, spFlags: 0)
!871 = !DIImportedEntity(tag: DW_TAG_imported_declaration, scope: !11, entity: !872, file: !821, line: 123)
!872 = !DISubprogram(name: "vsscanf", scope: !826, file: !826, line: 348, type: !873, flags: DIFlagPrototyped, spFlags: 0)
!873 = !DISubroutineType(types: !874)
!874 = !{!33, !180, !180, !862}
!875 = !DIImportedEntity(tag: DW_TAG_imported_declaration, scope: !11, entity: !876, file: !821, line: 124)
!876 = !DISubprogram(name: "vsnprintf", scope: !826, file: !826, line: 347, type: !877, flags: DIFlagPrototyped, spFlags: 0)
!877 = !DISubroutineType(types: !878)
!878 = !{!33, !199, !149, !180, !862}
!879 = !DIImportedEntity(tag: DW_TAG_imported_declaration, scope: !11, entity: !880, file: !821, line: 125)
!880 = !DISubprogram(name: "vsprintf", scope: !826, file: !826, line: 209, type: !881, flags: DIFlagPrototyped, spFlags: 0)
!881 = !DISubroutineType(types: !882)
!882 = !{!33, !199, !180, !862}
!883 = !DIImportedEntity(tag: DW_TAG_imported_declaration, scope: !11, entity: !884, file: !821, line: 126)
!884 = !DISubprogram(name: "fgetc", scope: !826, file: !826, line: 147, type: !827, flags: DIFlagPrototyped, spFlags: 0)
!885 = !DIImportedEntity(tag: DW_TAG_imported_declaration, scope: !11, entity: !886, file: !821, line: 127)
!886 = !DISubprogram(name: "fgets", scope: !826, file: !826, line: 149, type: !887, flags: DIFlagPrototyped, spFlags: 0)
!887 = !DISubroutineType(types: !888)
!888 = !{!199, !199, !33, !829}
!889 = !DIImportedEntity(tag: DW_TAG_imported_declaration, scope: !11, entity: !890, file: !821, line: 128)
!890 = !DISubprogram(name: "fputc", scope: !826, file: !826, line: 156, type: !891, flags: DIFlagPrototyped, spFlags: 0)
!891 = !DISubroutineType(types: !892)
!892 = !{!33, !33, !829}
!893 = !DIImportedEntity(tag: DW_TAG_imported_declaration, scope: !11, entity: !894, file: !821, line: 129)
!894 = !DISubprogram(name: "fputs", linkageName: "\01_fputs", scope: !826, file: !826, line: 157, type: !895, flags: DIFlagPrototyped, spFlags: 0)
!895 = !DISubroutineType(types: !896)
!896 = !{!33, !180, !829}
!897 = !DIImportedEntity(tag: DW_TAG_imported_declaration, scope: !11, entity: !898, file: !821, line: 130)
!898 = !DISubprogram(name: "getc", scope: !826, file: !826, line: 166, type: !827, flags: DIFlagPrototyped, spFlags: 0)
!899 = !DIImportedEntity(tag: DW_TAG_imported_declaration, scope: !11, entity: !900, file: !821, line: 131)
!900 = !DISubprogram(name: "putc", scope: !826, file: !826, line: 176, type: !891, flags: DIFlagPrototyped, spFlags: 0)
!901 = !DIImportedEntity(tag: DW_TAG_imported_declaration, scope: !11, entity: !902, file: !821, line: 132)
!902 = !DISubprogram(name: "ungetc", scope: !826, file: !826, line: 201, type: !891, flags: DIFlagPrototyped, spFlags: 0)
!903 = !DIImportedEntity(tag: DW_TAG_imported_declaration, scope: !11, entity: !904, file: !821, line: 133)
!904 = !DISubprogram(name: "fread", scope: !826, file: !826, line: 158, type: !905, flags: DIFlagPrototyped, spFlags: 0)
!905 = !DISubroutineType(types: !906)
!906 = !{!149, !238, !149, !149, !829}
!907 = !DIImportedEntity(tag: DW_TAG_imported_declaration, scope: !11, entity: !908, file: !821, line: 134)
!908 = !DISubprogram(name: "fwrite", linkageName: "\01_fwrite", scope: !826, file: !826, line: 165, type: !909, flags: DIFlagPrototyped, spFlags: 0)
!909 = !DISubroutineType(types: !910)
!910 = !{!149, !276, !149, !149, !829}
!911 = !DIImportedEntity(tag: DW_TAG_imported_declaration, scope: !11, entity: !912, file: !821, line: 136)
!912 = !DISubprogram(name: "fgetpos", scope: !826, file: !826, line: 148, type: !913, flags: DIFlagPrototyped, spFlags: 0)
!913 = !DISubroutineType(types: !914)
!914 = !{!33, !829, !915}
!915 = !DIDerivedType(tag: DW_TAG_pointer_type, baseType: !797, size: 64)
!916 = !DIImportedEntity(tag: DW_TAG_imported_declaration, scope: !11, entity: !917, file: !821, line: 138)
!917 = !DISubprogram(name: "fseek", scope: !826, file: !826, line: 162, type: !918, flags: DIFlagPrototyped, spFlags: 0)
!918 = !DISubroutineType(types: !919)
!919 = !{!33, !829, !129, !33}
!920 = !DIImportedEntity(tag: DW_TAG_imported_declaration, scope: !11, entity: !921, file: !821, line: 140)
!921 = !DISubprogram(name: "fsetpos", scope: !826, file: !826, line: 163, type: !922, flags: DIFlagPrototyped, spFlags: 0)
!922 = !DISubroutineType(types: !923)
!923 = !{!33, !829, !924}
!924 = !DIDerivedType(tag: DW_TAG_pointer_type, baseType: !925, size: 64)
!925 = !DIDerivedType(tag: DW_TAG_const_type, baseType: !797)
!926 = !DIImportedEntity(tag: DW_TAG_imported_declaration, scope: !11, entity: !927, file: !821, line: 142)
!927 = !DISubprogram(name: "ftell", scope: !826, file: !826, line: 164, type: !928, flags: DIFlagPrototyped, spFlags: 0)
!928 = !DISubroutineType(types: !929)
!929 = !{!129, !829}
!930 = !DIImportedEntity(tag: DW_TAG_imported_declaration, scope: !11, entity: !931, file: !821, line: 143)
!931 = !DISubprogram(name: "rewind", scope: !826, file: !826, line: 181, type: !932, flags: DIFlagPrototyped, spFlags: 0)
!932 = !DISubroutineType(types: !933)
!933 = !{null, !829}
!934 = !DIImportedEntity(tag: DW_TAG_imported_declaration, scope: !11, entity: !935, file: !821, line: 144)
!935 = !DISubprogram(name: "clearerr", scope: !826, file: !826, line: 142, type: !932, flags: DIFlagPrototyped, spFlags: 0)
!936 = !DIImportedEntity(tag: DW_TAG_imported_declaration, scope: !11, entity: !937, file: !821, line: 145)
!937 = !DISubprogram(name: "feof", scope: !826, file: !826, line: 144, type: !827, flags: DIFlagPrototyped, spFlags: 0)
!938 = !DIImportedEntity(tag: DW_TAG_imported_declaration, scope: !11, entity: !939, file: !821, line: 146)
!939 = !DISubprogram(name: "ferror", scope: !826, file: !826, line: 145, type: !827, flags: DIFlagPrototyped, spFlags: 0)
!940 = !DIImportedEntity(tag: DW_TAG_imported_declaration, scope: !11, entity: !941, file: !821, line: 147)
!941 = !DISubprogram(name: "perror", scope: !826, file: !826, line: 174, type: !942, flags: DIFlagPrototyped, spFlags: 0)
!942 = !DISubroutineType(types: !943)
!943 = !{null, !180}
!944 = !DIImportedEntity(tag: DW_TAG_imported_declaration, scope: !11, entity: !945, file: !821, line: 149)
!945 = !DISubprogram(name: "fopen", linkageName: "\01_fopen", scope: !826, file: !826, line: 153, type: !946, flags: DIFlagPrototyped, spFlags: 0)
!946 = !DISubroutineType(types: !947)
!947 = !{!829, !180, !180}
!948 = !DIImportedEntity(tag: DW_TAG_imported_declaration, scope: !11, entity: !949, file: !821, line: 150)
!949 = !DISubprogram(name: "freopen", linkageName: "\01_freopen", scope: !826, file: !826, line: 159, type: !950, flags: DIFlagPrototyped, spFlags: 0)
!950 = !DISubroutineType(types: !951)
!951 = !{!829, !180, !180, !829}
!952 = !DIImportedEntity(tag: DW_TAG_imported_declaration, scope: !11, entity: !953, file: !821, line: 152)
!953 = !DISubprogram(name: "remove", scope: !826, file: !826, line: 179, type: !184, flags: DIFlagPrototyped, spFlags: 0)
!954 = !DIImportedEntity(tag: DW_TAG_imported_declaration, scope: !11, entity: !955, file: !821, line: 154)
!955 = !DISubprogram(name: "rename", scope: !826, file: !826, line: 180, type: !359, flags: DIFlagPrototyped, spFlags: 0)
!956 = !DIImportedEntity(tag: DW_TAG_imported_declaration, scope: !11, entity: !957, file: !821, line: 155)
!957 = !DISubprogram(name: "tmpfile", scope: !826, file: !826, line: 193, type: !958, flags: DIFlagPrototyped, spFlags: 0)
!958 = !DISubroutineType(types: !959)
!959 = !{!829}
!960 = !DIImportedEntity(tag: DW_TAG_imported_declaration, scope: !11, entity: !961, file: !821, line: 156)
!961 = !DISubprogram(name: "tmpnam", scope: !826, file: !826, line: 199, type: !962, flags: DIFlagPrototyped, spFlags: 0)
!962 = !DISubroutineType(types: !963)
!963 = !{!199, !199}
!964 = !DIImportedEntity(tag: DW_TAG_imported_declaration, scope: !11, entity: !965, file: !821, line: 158)
!965 = !DISubprogram(name: "getchar", scope: !826, file: !826, line: 167, type: !227, flags: DIFlagPrototyped, spFlags: 0)
!966 = !DIImportedEntity(tag: DW_TAG_imported_declaration, scope: !11, entity: !967, file: !821, line: 160)
!967 = !DISubprogram(name: "gets", scope: !826, file: !826, line: 172, type: !962, flags: DIFlagPrototyped, spFlags: 0)
!968 = !DIImportedEntity(tag: DW_TAG_imported_declaration, scope: !11, entity: !969, file: !821, line: 162)
!969 = !DISubprogram(name: "scanf", scope: !826, file: !826, line: 182, type: !970, flags: DIFlagPrototyped, spFlags: 0)
!970 = !DISubroutineType(types: !971)
!971 = !{!33, !180, null}
!972 = !DIImportedEntity(tag: DW_TAG_imported_declaration, scope: !11, entity: !973, file: !821, line: 163)
!973 = !DISubprogram(name: "vscanf", scope: !826, file: !826, line: 346, type: !974, flags: DIFlagPrototyped, spFlags: 0)
!974 = !DISubroutineType(types: !975)
!975 = !{!33, !180, !862}
!976 = !DIImportedEntity(tag: DW_TAG_imported_declaration, scope: !11, entity: !977, file: !821, line: 165)
!977 = !DISubprogram(name: "printf", scope: !826, file: !826, line: 175, type: !970, flags: DIFlagPrototyped, spFlags: 0)
!978 = !DIImportedEntity(tag: DW_TAG_imported_declaration, scope: !11, entity: !979, file: !821, line: 166)
!979 = !DISubprogram(name: "putchar", scope: !826, file: !826, line: 177, type: !31, flags: DIFlagPrototyped, spFlags: 0)
!980 = !DIImportedEntity(tag: DW_TAG_imported_declaration, scope: !11, entity: !981, file: !821, line: 167)
!981 = !DISubprogram(name: "puts", scope: !826, file: !826, line: 178, type: !184, flags: DIFlagPrototyped, spFlags: 0)
!982 = !DIImportedEntity(tag: DW_TAG_imported_declaration, scope: !11, entity: !983, file: !821, line: 168)
!983 = !DISubprogram(name: "vprintf", scope: !826, file: !826, line: 203, type: !974, flags: DIFlagPrototyped, spFlags: 0)
!984 = !DIImportedEntity(tag: DW_TAG_imported_declaration, scope: !11, entity: !985, file: !988, line: 64)
!985 = !DIDerivedType(tag: DW_TAG_typedef, name: "wint_t", file: !986, line: 32, baseType: !987)
!986 = !DIFile(filename: "/Library/Developer/CommandLineTools/SDKs/MacOSX.sdk/usr/include/sys/_types/_wint_t.h", directory: "")
!987 = !DIDerivedType(tag: DW_TAG_typedef, name: "__darwin_wint_t", file: !16, line: 114, baseType: !33)
!988 = !DIFile(filename: "/Library/Developer/CommandLineTools/SDKs/MacOSX.sdk/usr/include/c++/v1/cwctype", directory: "")
!989 = !DIImportedEntity(tag: DW_TAG_imported_declaration, scope: !11, entity: !990, file: !988, line: 65)
!990 = !DIDerivedType(tag: DW_TAG_typedef, name: "wctrans_t", file: !991, line: 32, baseType: !992)
!991 = !DIFile(filename: "/Library/Developer/CommandLineTools/SDKs/MacOSX.sdk/usr/include/_types/_wctrans_t.h", directory: "")
!992 = !DIDerivedType(tag: DW_TAG_typedef, name: "__darwin_wctrans_t", file: !993, line: 41, baseType: !33)
!993 = !DIFile(filename: "/Library/Developer/CommandLineTools/SDKs/MacOSX.sdk/usr/include/_types.h", directory: "")
!994 = !DIImportedEntity(tag: DW_TAG_imported_declaration, scope: !11, entity: !995, file: !988, line: 66)
!995 = !DIDerivedType(tag: DW_TAG_typedef, name: "wctype_t", file: !996, line: 32, baseType: !997)
!996 = !DIFile(filename: "/Library/Developer/CommandLineTools/SDKs/MacOSX.sdk/usr/include/_types/_wctype_t.h", directory: "")
!997 = !DIDerivedType(tag: DW_TAG_typedef, name: "__darwin_wctype_t", file: !993, line: 43, baseType: !998)
!998 = !DIDerivedType(tag: DW_TAG_typedef, name: "__uint32_t", file: !16, line: 47, baseType: !87)
!999 = !DIImportedEntity(tag: DW_TAG_imported_declaration, scope: !11, entity: !1000, file: !988, line: 67)
!1000 = !DISubprogram(name: "iswalnum", linkageName: "_Z8iswalnumi", scope: !1001, file: !1001, line: 51, type: !1002, flags: DIFlagPrototyped, spFlags: 0)
!1001 = !DIFile(filename: "/Library/Developer/CommandLineTools/SDKs/MacOSX.sdk/usr/include/_wctype.h", directory: "")
!1002 = !DISubroutineType(types: !1003)
!1003 = !{!33, !985}
!1004 = !DIImportedEntity(tag: DW_TAG_imported_declaration, scope: !11, entity: !1005, file: !988, line: 68)
!1005 = !DISubprogram(name: "iswalpha", linkageName: "_Z8iswalphai", scope: !1001, file: !1001, line: 57, type: !1002, flags: DIFlagPrototyped, spFlags: 0)
!1006 = !DIImportedEntity(tag: DW_TAG_imported_declaration, scope: !11, entity: !1007, file: !988, line: 69)
!1007 = !DISubprogram(name: "iswblank", linkageName: "_Z8iswblanki", scope: !1008, file: !1008, line: 50, type: !1002, flags: DIFlagPrototyped, spFlags: 0)
!1008 = !DIFile(filename: "/Library/Developer/CommandLineTools/SDKs/MacOSX.sdk/usr/include/wctype.h", directory: "")
!1009 = !DIImportedEntity(tag: DW_TAG_imported_declaration, scope: !11, entity: !1010, file: !988, line: 70)
!1010 = !DISubprogram(name: "iswcntrl", linkageName: "_Z8iswcntrli", scope: !1001, file: !1001, line: 63, type: !1002, flags: DIFlagPrototyped, spFlags: 0)
!1011 = !DIImportedEntity(tag: DW_TAG_imported_declaration, scope: !11, entity: !1012, file: !988, line: 71)
!1012 = !DISubprogram(name: "iswdigit", linkageName: "_Z8iswdigiti", scope: !1001, file: !1001, line: 75, type: !1002, flags: DIFlagPrototyped, spFlags: 0)
!1013 = !DIImportedEntity(tag: DW_TAG_imported_declaration, scope: !11, entity: !1014, file: !988, line: 72)
!1014 = !DISubprogram(name: "iswgraph", linkageName: "_Z8iswgraphi", scope: !1001, file: !1001, line: 81, type: !1002, flags: DIFlagPrototyped, spFlags: 0)
!1015 = !DIImportedEntity(tag: DW_TAG_imported_declaration, scope: !11, entity: !1016, file: !988, line: 73)
!1016 = !DISubprogram(name: "iswlower", linkageName: "_Z8iswloweri", scope: !1001, file: !1001, line: 87, type: !1002, flags: DIFlagPrototyped, spFlags: 0)
!1017 = !DIImportedEntity(tag: DW_TAG_imported_declaration, scope: !11, entity: !1018, file: !988, line: 74)
!1018 = !DISubprogram(name: "iswprint", linkageName: "_Z8iswprinti", scope: !1001, file: !1001, line: 93, type: !1002, flags: DIFlagPrototyped, spFlags: 0)
!1019 = !DIImportedEntity(tag: DW_TAG_imported_declaration, scope: !11, entity: !1020, file: !988, line: 75)
!1020 = !DISubprogram(name: "iswpunct", linkageName: "_Z8iswpuncti", scope: !1001, file: !1001, line: 99, type: !1002, flags: DIFlagPrototyped, spFlags: 0)
!1021 = !DIImportedEntity(tag: DW_TAG_imported_declaration, scope: !11, entity: !1022, file: !988, line: 76)
!1022 = !DISubprogram(name: "iswspace", linkageName: "_Z8iswspacei", scope: !1001, file: !1001, line: 105, type: !1002, flags: DIFlagPrototyped, spFlags: 0)
!1023 = !DIImportedEntity(tag: DW_TAG_imported_declaration, scope: !11, entity: !1024, file: !988, line: 77)
!1024 = !DISubprogram(name: "iswupper", linkageName: "_Z8iswupperi", scope: !1001, file: !1001, line: 111, type: !1002, flags: DIFlagPrototyped, spFlags: 0)
!1025 = !DIImportedEntity(tag: DW_TAG_imported_declaration, scope: !11, entity: !1026, file: !988, line: 78)
!1026 = !DISubprogram(name: "iswxdigit", linkageName: "_Z9iswxdigiti", scope: !1001, file: !1001, line: 117, type: !1002, flags: DIFlagPrototyped, spFlags: 0)
!1027 = !DIImportedEntity(tag: DW_TAG_imported_declaration, scope: !11, entity: !1028, file: !988, line: 79)
!1028 = !DISubprogram(name: "iswctype", linkageName: "_Z8iswctypeij", scope: !1001, file: !1001, line: 69, type: !1029, flags: DIFlagPrototyped, spFlags: 0)
!1029 = !DISubroutineType(types: !1030)
!1030 = !{!33, !985, !995}
!1031 = !DIImportedEntity(tag: DW_TAG_imported_declaration, scope: !11, entity: !1032, file: !988, line: 80)
!1032 = !DISubprogram(name: "wctype", scope: !1001, file: !1001, line: 157, type: !1033, flags: DIFlagPrototyped, spFlags: 0)
!1033 = !DISubroutineType(types: !1034)
!1034 = !{!995, !180}
!1035 = !DIImportedEntity(tag: DW_TAG_imported_declaration, scope: !11, entity: !1036, file: !988, line: 81)
!1036 = !DISubprogram(name: "towlower", linkageName: "_Z8towloweri", scope: !1001, file: !1001, line: 123, type: !1037, flags: DIFlagPrototyped, spFlags: 0)
!1037 = !DISubroutineType(types: !1038)
!1038 = !{!985, !985}
!1039 = !DIImportedEntity(tag: DW_TAG_imported_declaration, scope: !11, entity: !1040, file: !988, line: 82)
!1040 = !DISubprogram(name: "towupper", linkageName: "_Z8towupperi", scope: !1001, file: !1001, line: 129, type: !1037, flags: DIFlagPrototyped, spFlags: 0)
!1041 = !DIImportedEntity(tag: DW_TAG_imported_declaration, scope: !11, entity: !1042, file: !988, line: 83)
!1042 = !DISubprogram(name: "towctrans", scope: !1008, file: !1008, line: 121, type: !1043, flags: DIFlagPrototyped, spFlags: 0)
!1043 = !DISubroutineType(types: !1044)
!1044 = !{!985, !985, !990}
!1045 = !DIImportedEntity(tag: DW_TAG_imported_declaration, scope: !11, entity: !1046, file: !988, line: 84)
!1046 = !DISubprogram(name: "wctrans", scope: !1008, file: !1008, line: 123, type: !1047, flags: DIFlagPrototyped, spFlags: 0)
!1047 = !DISubroutineType(types: !1048)
!1048 = !{!990, !180}
!1049 = !DIImportedEntity(tag: DW_TAG_imported_declaration, scope: !11, entity: !13, file: !1050, line: 116)
!1050 = !DIFile(filename: "/Library/Developer/CommandLineTools/SDKs/MacOSX.sdk/usr/include/c++/v1/cwchar", directory: "")
!1051 = !DIImportedEntity(tag: DW_TAG_imported_declaration, scope: !11, entity: !149, file: !1050, line: 117)
!1052 = !DIImportedEntity(tag: DW_TAG_imported_declaration, scope: !11, entity: !713, file: !1050, line: 118)
!1053 = !DIImportedEntity(tag: DW_TAG_imported_declaration, scope: !11, entity: !985, file: !1050, line: 119)
!1054 = !DIImportedEntity(tag: DW_TAG_imported_declaration, scope: !11, entity: !768, file: !1050, line: 120)
!1055 = !DIImportedEntity(tag: DW_TAG_imported_declaration, scope: !11, entity: !1056, file: !1050, line: 121)
!1056 = !DISubprogram(name: "fwprintf", scope: !1057, file: !1057, line: 103, type: !1058, flags: DIFlagPrototyped, spFlags: 0)
!1057 = !DIFile(filename: "/Library/Developer/CommandLineTools/SDKs/MacOSX.sdk/usr/include/wchar.h", directory: "")
!1058 = !DISubroutineType(types: !1059)
!1059 = !{!33, !829, !330, null}
!1060 = !DIImportedEntity(tag: DW_TAG_imported_declaration, scope: !11, entity: !1061, file: !1050, line: 122)
!1061 = !DISubprogram(name: "fwscanf", scope: !1057, file: !1057, line: 104, type: !1058, flags: DIFlagPrototyped, spFlags: 0)
!1062 = !DIImportedEntity(tag: DW_TAG_imported_declaration, scope: !11, entity: !1063, file: !1050, line: 123)
!1063 = !DISubprogram(name: "swprintf", scope: !1057, file: !1057, line: 115, type: !1064, flags: DIFlagPrototyped, spFlags: 0)
!1064 = !DISubroutineType(types: !1065)
!1065 = !{!33, !316, !149, !330, null}
!1066 = !DIImportedEntity(tag: DW_TAG_imported_declaration, scope: !11, entity: !1067, file: !1050, line: 124)
!1067 = !DISubprogram(name: "vfwprintf", scope: !1057, file: !1057, line: 118, type: !1068, flags: DIFlagPrototyped, spFlags: 0)
!1068 = !DISubroutineType(types: !1069)
!1069 = !{!33, !829, !330, !862}
!1070 = !DIImportedEntity(tag: DW_TAG_imported_declaration, scope: !11, entity: !1071, file: !1050, line: 125)
!1071 = !DISubprogram(name: "vswprintf", scope: !1057, file: !1057, line: 120, type: !1072, flags: DIFlagPrototyped, spFlags: 0)
!1072 = !DISubroutineType(types: !1073)
!1073 = !{!33, !316, !149, !330, !862}
!1074 = !DIImportedEntity(tag: DW_TAG_imported_declaration, scope: !11, entity: !1075, file: !1050, line: 126)
!1075 = !DISubprogram(name: "swscanf", scope: !1057, file: !1057, line: 116, type: !1076, flags: DIFlagPrototyped, spFlags: 0)
!1076 = !DISubroutineType(types: !1077)
!1077 = !{!33, !330, !330, null}
!1078 = !DIImportedEntity(tag: DW_TAG_imported_declaration, scope: !11, entity: !1079, file: !1050, line: 127)
!1079 = !DISubprogram(name: "vfwscanf", scope: !1057, file: !1057, line: 170, type: !1068, flags: DIFlagPrototyped, spFlags: 0)
!1080 = !DIImportedEntity(tag: DW_TAG_imported_declaration, scope: !11, entity: !1081, file: !1050, line: 128)
!1081 = !DISubprogram(name: "vswscanf", scope: !1057, file: !1057, line: 172, type: !1082, flags: DIFlagPrototyped, spFlags: 0)
!1082 = !DISubroutineType(types: !1083)
!1083 = !{!33, !330, !330, !862}
!1084 = !DIImportedEntity(tag: DW_TAG_imported_declaration, scope: !11, entity: !1085, file: !1050, line: 129)
!1085 = !DISubprogram(name: "fgetwc", scope: !1057, file: !1057, line: 98, type: !1086, flags: DIFlagPrototyped, spFlags: 0)
!1086 = !DISubroutineType(types: !1087)
!1087 = !{!985, !829}
!1088 = !DIImportedEntity(tag: DW_TAG_imported_declaration, scope: !11, entity: !1089, file: !1050, line: 130)
!1089 = !DISubprogram(name: "fgetws", scope: !1057, file: !1057, line: 99, type: !1090, flags: DIFlagPrototyped, spFlags: 0)
!1090 = !DISubroutineType(types: !1091)
!1091 = !{!316, !316, !33, !829}
!1092 = !DIImportedEntity(tag: DW_TAG_imported_declaration, scope: !11, entity: !1093, file: !1050, line: 131)
!1093 = !DISubprogram(name: "fputwc", scope: !1057, file: !1057, line: 100, type: !1094, flags: DIFlagPrototyped, spFlags: 0)
!1094 = !DISubroutineType(types: !1095)
!1095 = !{!985, !317, !829}
!1096 = !DIImportedEntity(tag: DW_TAG_imported_declaration, scope: !11, entity: !1097, file: !1050, line: 132)
!1097 = !DISubprogram(name: "fputws", scope: !1057, file: !1057, line: 101, type: !1098, flags: DIFlagPrototyped, spFlags: 0)
!1098 = !DISubroutineType(types: !1099)
!1099 = !{!33, !330, !829}
!1100 = !DIImportedEntity(tag: DW_TAG_imported_declaration, scope: !11, entity: !1101, file: !1050, line: 133)
!1101 = !DISubprogram(name: "fwide", scope: !1057, file: !1057, line: 102, type: !1102, flags: DIFlagPrototyped, spFlags: 0)
!1102 = !DISubroutineType(types: !1103)
!1103 = !{!33, !829, !33}
!1104 = !DIImportedEntity(tag: DW_TAG_imported_declaration, scope: !11, entity: !1105, file: !1050, line: 134)
!1105 = !DISubprogram(name: "getwc", scope: !1057, file: !1057, line: 105, type: !1086, flags: DIFlagPrototyped, spFlags: 0)
!1106 = !DIImportedEntity(tag: DW_TAG_imported_declaration, scope: !11, entity: !1107, file: !1050, line: 135)
!1107 = !DISubprogram(name: "putwc", scope: !1057, file: !1057, line: 113, type: !1094, flags: DIFlagPrototyped, spFlags: 0)
!1108 = !DIImportedEntity(tag: DW_TAG_imported_declaration, scope: !11, entity: !1109, file: !1050, line: 136)
!1109 = !DISubprogram(name: "ungetwc", scope: !1057, file: !1057, line: 117, type: !1110, flags: DIFlagPrototyped, spFlags: 0)
!1110 = !DISubroutineType(types: !1111)
!1111 = !{!985, !985, !829}
!1112 = !DIImportedEntity(tag: DW_TAG_imported_declaration, scope: !11, entity: !1113, file: !1050, line: 137)
!1113 = !DISubprogram(name: "wcstod", scope: !1057, file: !1057, line: 144, type: !1114, flags: DIFlagPrototyped, spFlags: 0)
!1114 = !DISubroutineType(types: !1115)
!1115 = !{!179, !330, !1116}
!1116 = !DIDerivedType(tag: DW_TAG_pointer_type, baseType: !316, size: 64)
!1117 = !DIImportedEntity(tag: DW_TAG_imported_declaration, scope: !11, entity: !1118, file: !1050, line: 138)
!1118 = !DISubprogram(name: "wcstof", scope: !1057, file: !1057, line: 175, type: !1119, flags: DIFlagPrototyped, spFlags: 0)
!1119 = !DISubroutineType(types: !1120)
!1120 = !{!204, !330, !1116}
!1121 = !DIImportedEntity(tag: DW_TAG_imported_declaration, scope: !11, entity: !1122, file: !1050, line: 139)
!1122 = !DISubprogram(name: "wcstold", scope: !1057, file: !1057, line: 177, type: !1123, flags: DIFlagPrototyped, spFlags: 0)
!1123 = !DISubroutineType(types: !1124)
!1124 = !{!153, !330, !1116}
!1125 = !DIImportedEntity(tag: DW_TAG_imported_declaration, scope: !11, entity: !1126, file: !1050, line: 140)
!1126 = !DISubprogram(name: "wcstol", scope: !1057, file: !1057, line: 147, type: !1127, flags: DIFlagPrototyped, spFlags: 0)
!1127 = !DISubroutineType(types: !1128)
!1128 = !{!129, !330, !1116, !33}
!1129 = !DIImportedEntity(tag: DW_TAG_imported_declaration, scope: !11, entity: !1130, file: !1050, line: 141)
!1130 = !DISubprogram(name: "wcstoll", scope: !1057, file: !1057, line: 180, type: !1131, flags: DIFlagPrototyped, spFlags: 0)
!1131 = !DISubroutineType(types: !1132)
!1132 = !{!26, !330, !1116, !33}
!1133 = !DIImportedEntity(tag: DW_TAG_imported_declaration, scope: !11, entity: !1134, file: !1050, line: 142)
!1134 = !DISubprogram(name: "wcstoul", scope: !1057, file: !1057, line: 149, type: !1135, flags: DIFlagPrototyped, spFlags: 0)
!1135 = !DISubroutineType(types: !1136)
!1136 = !{!133, !330, !1116, !33}
!1137 = !DIImportedEntity(tag: DW_TAG_imported_declaration, scope: !11, entity: !1138, file: !1050, line: 143)
!1138 = !DISubprogram(name: "wcstoull", scope: !1057, file: !1057, line: 182, type: !1139, flags: DIFlagPrototyped, spFlags: 0)
!1139 = !DISubroutineType(types: !1140)
!1140 = !{!91, !330, !1116, !33}
!1141 = !DIImportedEntity(tag: DW_TAG_imported_declaration, scope: !11, entity: !1142, file: !1050, line: 144)
!1142 = !DISubprogram(name: "wcscpy", scope: !1057, file: !1057, line: 128, type: !1143, flags: DIFlagPrototyped, spFlags: 0)
!1143 = !DISubroutineType(types: !1144)
!1144 = !{!316, !316, !330}
!1145 = !DIImportedEntity(tag: DW_TAG_imported_declaration, scope: !11, entity: !1146, file: !1050, line: 145)
!1146 = !DISubprogram(name: "wcsncpy", scope: !1057, file: !1057, line: 135, type: !1147, flags: DIFlagPrototyped, spFlags: 0)
!1147 = !DISubroutineType(types: !1148)
!1148 = !{!316, !316, !330, !149}
!1149 = !DIImportedEntity(tag: DW_TAG_imported_declaration, scope: !11, entity: !1150, file: !1050, line: 146)
!1150 = !DISubprogram(name: "wcscat", scope: !1057, file: !1057, line: 124, type: !1143, flags: DIFlagPrototyped, spFlags: 0)
!1151 = !DIImportedEntity(tag: DW_TAG_imported_declaration, scope: !11, entity: !1152, file: !1050, line: 147)
!1152 = !DISubprogram(name: "wcsncat", scope: !1057, file: !1057, line: 133, type: !1147, flags: DIFlagPrototyped, spFlags: 0)
!1153 = !DIImportedEntity(tag: DW_TAG_imported_declaration, scope: !11, entity: !1154, file: !1050, line: 148)
!1154 = !DISubprogram(name: "wcscmp", scope: !1057, file: !1057, line: 126, type: !1155, flags: DIFlagPrototyped, spFlags: 0)
!1155 = !DISubroutineType(types: !1156)
!1156 = !{!33, !330, !330}
!1157 = !DIImportedEntity(tag: DW_TAG_imported_declaration, scope: !11, entity: !1158, file: !1050, line: 149)
!1158 = !DISubprogram(name: "wcscoll", scope: !1057, file: !1057, line: 127, type: !1155, flags: DIFlagPrototyped, spFlags: 0)
!1159 = !DIImportedEntity(tag: DW_TAG_imported_declaration, scope: !11, entity: !1160, file: !1050, line: 150)
!1160 = !DISubprogram(name: "wcsncmp", scope: !1057, file: !1057, line: 134, type: !1161, flags: DIFlagPrototyped, spFlags: 0)
!1161 = !DISubroutineType(types: !1162)
!1162 = !{!33, !330, !330, !149}
!1163 = !DIImportedEntity(tag: DW_TAG_imported_declaration, scope: !11, entity: !1164, file: !1050, line: 151)
!1164 = !DISubprogram(name: "wcsxfrm", scope: !1057, file: !1057, line: 142, type: !1165, flags: DIFlagPrototyped, spFlags: 0)
!1165 = !DISubroutineType(types: !1166)
!1166 = !{!149, !316, !330, !149}
!1167 = !DIImportedEntity(tag: DW_TAG_imported_declaration, scope: !11, entity: !1168, file: !1050, line: 152)
!1168 = !DISubprogram(name: "wcschr", linkageName: "_Z6wcschrB6v15006Ua9enable_ifIXLb1EEEPww", scope: !1169, file: !1169, line: 145, type: !1170, flags: DIFlagPrototyped, spFlags: 0)
!1169 = !DIFile(filename: "/Library/Developer/CommandLineTools/SDKs/MacOSX.sdk/usr/include/c++/v1/wchar.h", directory: "")
!1170 = !DISubroutineType(types: !1171)
!1171 = !{!316, !316, !317}
!1172 = !DIImportedEntity(tag: DW_TAG_imported_declaration, scope: !11, entity: !1173, file: !1050, line: 153)
!1173 = !DISubprogram(name: "wcspbrk", linkageName: "_Z7wcspbrkB6v15006Ua9enable_ifIXLb1EEEPwPKw", scope: !1169, file: !1169, line: 152, type: !1143, flags: DIFlagPrototyped, spFlags: 0)
!1174 = !DIImportedEntity(tag: DW_TAG_imported_declaration, scope: !11, entity: !1175, file: !1050, line: 154)
!1175 = !DISubprogram(name: "wcsrchr", linkageName: "_Z7wcsrchrB6v15006Ua9enable_ifIXLb1EEEPww", scope: !1169, file: !1169, line: 159, type: !1170, flags: DIFlagPrototyped, spFlags: 0)
!1176 = !DIImportedEntity(tag: DW_TAG_imported_declaration, scope: !11, entity: !1177, file: !1050, line: 155)
!1177 = !DISubprogram(name: "wcsstr", linkageName: "_Z6wcsstrB6v15006Ua9enable_ifIXLb1EEEPwPKw", scope: !1169, file: !1169, line: 166, type: !1143, flags: DIFlagPrototyped, spFlags: 0)
!1178 = !DIImportedEntity(tag: DW_TAG_imported_declaration, scope: !11, entity: !1179, file: !1050, line: 156)
!1179 = !DISubprogram(name: "wmemchr", linkageName: "_Z7wmemchrB6v15006Ua9enable_ifIXLb1EEEPwwm", scope: !1169, file: !1169, line: 173, type: !1180, flags: DIFlagPrototyped, spFlags: 0)
!1180 = !DISubroutineType(types: !1181)
!1181 = !{!316, !316, !317, !149}
!1182 = !DIImportedEntity(tag: DW_TAG_imported_declaration, scope: !11, entity: !1183, file: !1050, line: 157)
!1183 = !DISubprogram(name: "wcscspn", scope: !1057, file: !1057, line: 129, type: !1184, flags: DIFlagPrototyped, spFlags: 0)
!1184 = !DISubroutineType(types: !1185)
!1185 = !{!149, !330, !330}
!1186 = !DIImportedEntity(tag: DW_TAG_imported_declaration, scope: !11, entity: !1187, file: !1050, line: 158)
!1187 = !DISubprogram(name: "wcslen", scope: !1057, file: !1057, line: 132, type: !1188, flags: DIFlagPrototyped, spFlags: 0)
!1188 = !DISubroutineType(types: !1189)
!1189 = !{!149, !330}
!1190 = !DIImportedEntity(tag: DW_TAG_imported_declaration, scope: !11, entity: !1191, file: !1050, line: 159)
!1191 = !DISubprogram(name: "wcsspn", scope: !1057, file: !1057, line: 140, type: !1184, flags: DIFlagPrototyped, spFlags: 0)
!1192 = !DIImportedEntity(tag: DW_TAG_imported_declaration, scope: !11, entity: !1193, file: !1050, line: 160)
!1193 = !DISubprogram(name: "wcstok", scope: !1057, file: !1057, line: 145, type: !1194, flags: DIFlagPrototyped, spFlags: 0)
!1194 = !DISubroutineType(types: !1195)
!1195 = !{!316, !316, !330, !1116}
!1196 = !DIImportedEntity(tag: DW_TAG_imported_declaration, scope: !11, entity: !1197, file: !1050, line: 161)
!1197 = !DISubprogram(name: "wmemcmp", scope: !1057, file: !1057, line: 151, type: !1161, flags: DIFlagPrototyped, spFlags: 0)
!1198 = !DIImportedEntity(tag: DW_TAG_imported_declaration, scope: !11, entity: !1199, file: !1050, line: 162)
!1199 = !DISubprogram(name: "wmemcpy", scope: !1057, file: !1057, line: 152, type: !1147, flags: DIFlagPrototyped, spFlags: 0)
!1200 = !DIImportedEntity(tag: DW_TAG_imported_declaration, scope: !11, entity: !1201, file: !1050, line: 163)
!1201 = !DISubprogram(name: "wmemmove", scope: !1057, file: !1057, line: 153, type: !1147, flags: DIFlagPrototyped, spFlags: 0)
!1202 = !DIImportedEntity(tag: DW_TAG_imported_declaration, scope: !11, entity: !1203, file: !1050, line: 164)
!1203 = !DISubprogram(name: "wmemset", scope: !1057, file: !1057, line: 154, type: !1180, flags: DIFlagPrototyped, spFlags: 0)
!1204 = !DIImportedEntity(tag: DW_TAG_imported_declaration, scope: !11, entity: !1205, file: !1050, line: 165)
!1205 = !DISubprogram(name: "wcsftime", linkageName: "\01_wcsftime", scope: !1057, file: !1057, line: 130, type: !1206, flags: DIFlagPrototyped, spFlags: 0)
!1206 = !DISubroutineType(types: !1207)
!1207 = !{!149, !316, !149, !330, !749}
!1208 = !DIImportedEntity(tag: DW_TAG_imported_declaration, scope: !11, entity: !1209, file: !1050, line: 166)
!1209 = !DISubprogram(name: "btowc", scope: !1057, file: !1057, line: 97, type: !1210, flags: DIFlagPrototyped, spFlags: 0)
!1210 = !DISubroutineType(types: !1211)
!1211 = !{!985, !33}
!1212 = !DIImportedEntity(tag: DW_TAG_imported_declaration, scope: !11, entity: !1213, file: !1050, line: 167)
!1213 = !DISubprogram(name: "wctob", scope: !1057, file: !1057, line: 143, type: !1002, flags: DIFlagPrototyped, spFlags: 0)
!1214 = !DIImportedEntity(tag: DW_TAG_imported_declaration, scope: !11, entity: !1215, file: !1050, line: 168)
!1215 = !DISubprogram(name: "mbsinit", scope: !1057, file: !1057, line: 110, type: !1216, flags: DIFlagPrototyped, spFlags: 0)
!1216 = !DISubroutineType(types: !1217)
!1217 = !{!33, !1218}
!1218 = !DIDerivedType(tag: DW_TAG_pointer_type, baseType: !1219, size: 64)
!1219 = !DIDerivedType(tag: DW_TAG_const_type, baseType: !13)
!1220 = !DIImportedEntity(tag: DW_TAG_imported_declaration, scope: !11, entity: !1221, file: !1050, line: 169)
!1221 = !DISubprogram(name: "mbrlen", scope: !1057, file: !1057, line: 107, type: !1222, flags: DIFlagPrototyped, spFlags: 0)
!1222 = !DISubroutineType(types: !1223)
!1223 = !{!149, !180, !149, !1224}
!1224 = !DIDerivedType(tag: DW_TAG_pointer_type, baseType: !13, size: 64)
!1225 = !DIImportedEntity(tag: DW_TAG_imported_declaration, scope: !11, entity: !1226, file: !1050, line: 170)
!1226 = !DISubprogram(name: "mbrtowc", scope: !1057, file: !1057, line: 108, type: !1227, flags: DIFlagPrototyped, spFlags: 0)
!1227 = !DISubroutineType(types: !1228)
!1228 = !{!149, !316, !180, !149, !1224}
!1229 = !DIImportedEntity(tag: DW_TAG_imported_declaration, scope: !11, entity: !1230, file: !1050, line: 171)
!1230 = !DISubprogram(name: "wcrtomb", scope: !1057, file: !1057, line: 123, type: !1231, flags: DIFlagPrototyped, spFlags: 0)
!1231 = !DISubroutineType(types: !1232)
!1232 = !{!149, !199, !317, !1224}
!1233 = !DIImportedEntity(tag: DW_TAG_imported_declaration, scope: !11, entity: !1234, file: !1050, line: 172)
!1234 = !DISubprogram(name: "mbsrtowcs", scope: !1057, file: !1057, line: 111, type: !1235, flags: DIFlagPrototyped, spFlags: 0)
!1235 = !DISubroutineType(types: !1236)
!1236 = !{!149, !316, !1237, !149, !1224}
!1237 = !DIDerivedType(tag: DW_TAG_pointer_type, baseType: !180, size: 64)
!1238 = !DIImportedEntity(tag: DW_TAG_imported_declaration, scope: !11, entity: !1239, file: !1050, line: 173)
!1239 = !DISubprogram(name: "wcsrtombs", scope: !1057, file: !1057, line: 138, type: !1240, flags: DIFlagPrototyped, spFlags: 0)
!1240 = !DISubroutineType(types: !1241)
!1241 = !{!149, !199, !1242, !149, !1224}
!1242 = !DIDerivedType(tag: DW_TAG_pointer_type, baseType: !330, size: 64)
!1243 = !DIImportedEntity(tag: DW_TAG_imported_declaration, scope: !11, entity: !1244, file: !1050, line: 175)
!1244 = !DISubprogram(name: "getwchar", scope: !1057, file: !1057, line: 106, type: !1245, flags: DIFlagPrototyped, spFlags: 0)
!1245 = !DISubroutineType(types: !1246)
!1246 = !{!985}
!1247 = !DIImportedEntity(tag: DW_TAG_imported_declaration, scope: !11, entity: !1248, file: !1050, line: 176)
!1248 = !DISubprogram(name: "vwscanf", scope: !1057, file: !1057, line: 174, type: !1249, flags: DIFlagPrototyped, spFlags: 0)
!1249 = !DISubroutineType(types: !1250)
!1250 = !{!33, !330, !862}
!1251 = !DIImportedEntity(tag: DW_TAG_imported_declaration, scope: !11, entity: !1252, file: !1050, line: 177)
!1252 = !DISubprogram(name: "wscanf", scope: !1057, file: !1057, line: 156, type: !1253, flags: DIFlagPrototyped, spFlags: 0)
!1253 = !DISubroutineType(types: !1254)
!1254 = !{!33, !330, null}
!1255 = !DIImportedEntity(tag: DW_TAG_imported_declaration, scope: !11, entity: !1256, file: !1050, line: 179)
!1256 = !DISubprogram(name: "putwchar", scope: !1057, file: !1057, line: 114, type: !1257, flags: DIFlagPrototyped, spFlags: 0)
!1257 = !DISubroutineType(types: !1258)
!1258 = !{!985, !317}
!1259 = !DIImportedEntity(tag: DW_TAG_imported_declaration, scope: !11, entity: !1260, file: !1050, line: 180)
!1260 = !DISubprogram(name: "vwprintf", scope: !1057, file: !1057, line: 122, type: !1249, flags: DIFlagPrototyped, spFlags: 0)
!1261 = !DIImportedEntity(tag: DW_TAG_imported_declaration, scope: !11, entity: !1262, file: !1050, line: 181)
!1262 = !DISubprogram(name: "wprintf", scope: !1057, file: !1057, line: 155, type: !1253, flags: DIFlagPrototyped, spFlags: 0)
!1263 = !DIImportedEntity(tag: DW_TAG_imported_declaration, scope: !11, entity: !1264, file: !1269, line: 44)
!1264 = !DIDerivedType(tag: DW_TAG_typedef, name: "va_list", file: !1265, line: 32, baseType: !1266)
!1265 = !DIFile(filename: "/Library/Developer/CommandLineTools/SDKs/MacOSX.sdk/usr/include/sys/_types/_va_list.h", directory: "")
!1266 = !DIDerivedType(tag: DW_TAG_typedef, name: "__darwin_va_list", file: !16, line: 100, baseType: !1267)
!1267 = !DIDerivedType(tag: DW_TAG_typedef, name: "__builtin_va_list", file: !8, baseType: !1268)
!1268 = !DICompositeType(tag: DW_TAG_array_type, baseType: !863, size: 192, elements: !816)
!1269 = !DIFile(filename: "/Library/Developer/CommandLineTools/SDKs/MacOSX.sdk/usr/include/c++/v1/cstdarg", directory: "")
!1270 = !{!"Apple clang version 14.0.3 (clang-1403.0.22.14.1)"}
!1271 = distinct !DISubprogram(name: "main", scope: !8, file: !8, line: 3, type: !227, scopeLine: 3, flags: DIFlagPrototyped, spFlags: DISPFlagDefinition, unit: !7, retainedNodes: !1272)
!1272 = !{}
!1273 = !DILocation(line: 5, column: 5, scope: !1271)
